ARM GAS  /var/folders/0z/b9p8b05s1kb5msq549c5__rh0000gn/T//cc8CuGSI.s 			page 1


   1              		.cpu cortex-m7
   2              		.eabi_attribute 28, 1
   3              		.eabi_attribute 20, 1
   4              		.eabi_attribute 21, 1
   5              		.eabi_attribute 23, 3
   6              		.eabi_attribute 24, 1
   7              		.eabi_attribute 25, 1
   8              		.eabi_attribute 26, 1
   9              		.eabi_attribute 30, 2
  10              		.eabi_attribute 34, 1
  11              		.eabi_attribute 18, 4
  12              		.file	"DrumModule.cpp"
  13              		.text
  14              	.Ltext0:
  15              		.cfi_sections	.debug_frame
  16              		.section	.text._ZN5daisy6SwitchD2Ev,"axG",%progbits,_ZN5daisy6SwitchD5Ev,comdat
  17              		.align	1
  18              		.p2align 2,,3
  19              		.weak	_ZN5daisy6SwitchD2Ev
  20              		.arch armv7e-m
  21              		.syntax unified
  22              		.thumb
  23              		.thumb_func
  24              		.fpu fpv5-d16
  26              	_ZN5daisy6SwitchD2Ev:
  27              	.LVL0:
  28              	.LFB1534:
  29              		.file 1 "../../libdaisy/src/hid/switch.h"
   1:../../libdaisy/src/hid/switch.h **** #pragma once
   2:../../libdaisy/src/hid/switch.h **** #ifndef DSY_SWITCH_H
   3:../../libdaisy/src/hid/switch.h **** #define DSY_SWITCH_H
   4:../../libdaisy/src/hid/switch.h **** #include "daisy_core.h"
   5:../../libdaisy/src/hid/switch.h **** #include "per/gpio.h"
   6:../../libdaisy/src/hid/switch.h **** 
   7:../../libdaisy/src/hid/switch.h **** namespace daisy
   8:../../libdaisy/src/hid/switch.h **** {
   9:../../libdaisy/src/hid/switch.h **** /** 
  10:../../libdaisy/src/hid/switch.h ****     Generic Class for handling momentary/latching switches \n 
  11:../../libdaisy/src/hid/switch.h ****     Inspired/influenced by Mutable Instruments (pichenettes) Switch classes
  12:../../libdaisy/src/hid/switch.h ****     @author Stephen Hensley
  13:../../libdaisy/src/hid/switch.h ****     @date December 2019
  14:../../libdaisy/src/hid/switch.h ****     @ingroup controls
  15:../../libdaisy/src/hid/switch.h **** */
  16:../../libdaisy/src/hid/switch.h **** class Switch
  17:../../libdaisy/src/hid/switch.h **** {
  18:../../libdaisy/src/hid/switch.h ****   public:
  19:../../libdaisy/src/hid/switch.h ****     /** Specifies the expected behavior of the switch */
  20:../../libdaisy/src/hid/switch.h ****     enum Type
  21:../../libdaisy/src/hid/switch.h ****     {
  22:../../libdaisy/src/hid/switch.h ****         TYPE_TOGGLE,    /**< & */
  23:../../libdaisy/src/hid/switch.h ****         TYPE_MOMENTARY, /**< & */
  24:../../libdaisy/src/hid/switch.h ****     };
  25:../../libdaisy/src/hid/switch.h ****     /** Specifies whether the pressed is HIGH or LOW. */
  26:../../libdaisy/src/hid/switch.h ****     enum Polarity
  27:../../libdaisy/src/hid/switch.h ****     {
  28:../../libdaisy/src/hid/switch.h ****         POLARITY_NORMAL,   /**< & */
  29:../../libdaisy/src/hid/switch.h ****         POLARITY_INVERTED, /**< & */
ARM GAS  /var/folders/0z/b9p8b05s1kb5msq549c5__rh0000gn/T//cc8CuGSI.s 			page 2


  30:../../libdaisy/src/hid/switch.h ****     };
  31:../../libdaisy/src/hid/switch.h **** 
  32:../../libdaisy/src/hid/switch.h ****     /** Specifies whether to use built-in Pull Up/Down resistors to hold button at a given state wh
  33:../../libdaisy/src/hid/switch.h ****     enum Pull
  34:../../libdaisy/src/hid/switch.h ****     {
  35:../../libdaisy/src/hid/switch.h ****         PULL_UP,   /**< & */
  36:../../libdaisy/src/hid/switch.h ****         PULL_DOWN, /**< & */
  37:../../libdaisy/src/hid/switch.h ****         PULL_NONE, /**< & */
  38:../../libdaisy/src/hid/switch.h ****     };
  39:../../libdaisy/src/hid/switch.h **** 
  40:../../libdaisy/src/hid/switch.h ****     Switch() {}
  41:../../libdaisy/src/hid/switch.h ****     ~Switch() {}
  30              		.loc 1 41 5 view -0
  31              		.cfi_startproc
  32              		@ args = 0, pretend = 0, frame = 0
  33              		@ frame_needed = 0, uses_anonymous_args = 0
  34              		@ link register save eliminated.
  35              		.loc 1 41 16 is_stmt 0 view .LVU1
  36 0000 7047     		bx	lr
  37              		.cfi_endproc
  38              	.LFE1534:
  40              		.weak	_ZN5daisy6SwitchD1Ev
  41              		.thumb_set _ZN5daisy6SwitchD1Ev,_ZN5daisy6SwitchD2Ev
  42 0002 00BF     		.section	.text._ZN5daisy9DaisySeedD2Ev,"axG",%progbits,_ZN5daisy9DaisySeedD5Ev,comdat
  43              		.align	1
  44              		.p2align 2,,3
  45              		.weak	_ZN5daisy9DaisySeedD2Ev
  46              		.syntax unified
  47              		.thumb
  48              		.thumb_func
  49              		.fpu fpv5-d16
  51              	_ZN5daisy9DaisySeedD2Ev:
  52              	.LVL1:
  53              	.LFB2013:
  54              		.file 2 "../../libdaisy/src/daisy_seed.h"
   1:../../libdaisy/src/daisy_seed.h **** #pragma once
   2:../../libdaisy/src/daisy_seed.h **** #ifndef DSY_SEED_H
   3:../../libdaisy/src/daisy_seed.h **** #define DSY_SEED_H
   4:../../libdaisy/src/daisy_seed.h **** 
   5:../../libdaisy/src/daisy_seed.h **** #include "daisy.h"
   6:../../libdaisy/src/daisy_seed.h **** 
   7:../../libdaisy/src/daisy_seed.h **** //Uncomment this out if you're still using the rev2 hardware
   8:../../libdaisy/src/daisy_seed.h **** //#define SEED_REV2
   9:../../libdaisy/src/daisy_seed.h **** 
  10:../../libdaisy/src/daisy_seed.h **** namespace daisy
  11:../../libdaisy/src/daisy_seed.h **** {
  12:../../libdaisy/src/daisy_seed.h **** /**
  13:../../libdaisy/src/daisy_seed.h ****    @brief This is the higher-level interface for the Daisy board. \n 
  14:../../libdaisy/src/daisy_seed.h ****     All basic peripheral configuration/initialization is setup here. \n
  15:../../libdaisy/src/daisy_seed.h **** 
  16:../../libdaisy/src/daisy_seed.h ****    @ingroup boards
  17:../../libdaisy/src/daisy_seed.h **** */
  18:../../libdaisy/src/daisy_seed.h **** class DaisySeed
  19:../../libdaisy/src/daisy_seed.h **** {
  20:../../libdaisy/src/daisy_seed.h ****   public:
  21:../../libdaisy/src/daisy_seed.h ****     DaisySeed() {}
  22:../../libdaisy/src/daisy_seed.h ****     ~DaisySeed() {}
ARM GAS  /var/folders/0z/b9p8b05s1kb5msq549c5__rh0000gn/T//cc8CuGSI.s 			page 3


  55              		.loc 2 22 5 is_stmt 1 view -0
  56              		.cfi_startproc
  57              		@ args = 0, pretend = 0, frame = 0
  58              		@ frame_needed = 0, uses_anonymous_args = 0
  59              		@ link register save eliminated.
  60              	.LBB146:
  61              	.LBI146:
  62              		.file 3 "../../libdaisy/src/sys/system.h"
   1:../../libdaisy/src/sys/system.h **** #ifndef DSY_SYSTEM_H
   2:../../libdaisy/src/sys/system.h **** #define DSY_SYSTEM_H
   3:../../libdaisy/src/sys/system.h **** 
   4:../../libdaisy/src/sys/system.h **** #ifndef UNIT_TEST // for unit tests, a dummy implementation is provided below
   5:../../libdaisy/src/sys/system.h **** 
   6:../../libdaisy/src/sys/system.h **** #include <cstdint>
   7:../../libdaisy/src/sys/system.h **** #include "per/tim.h"
   8:../../libdaisy/src/sys/system.h **** 
   9:../../libdaisy/src/sys/system.h **** namespace daisy
  10:../../libdaisy/src/sys/system.h **** {
  11:../../libdaisy/src/sys/system.h **** /** A handle for interacting with the Core System. 
  12:../../libdaisy/src/sys/system.h ****  ** This includes the Clock tree, MPU, global DMA initialization,
  13:../../libdaisy/src/sys/system.h ****  ** cache handling, and any other necessary global initiailzation
  14:../../libdaisy/src/sys/system.h ****  **
  15:../../libdaisy/src/sys/system.h ****  ** @author shensley
  16:../../libdaisy/src/sys/system.h ****  ** @addtogroup system
  17:../../libdaisy/src/sys/system.h ****  */
  18:../../libdaisy/src/sys/system.h **** class System
  19:../../libdaisy/src/sys/system.h **** {
  20:../../libdaisy/src/sys/system.h ****   public:
  21:../../libdaisy/src/sys/system.h ****     /** Contains settings for initializing the System */
  22:../../libdaisy/src/sys/system.h ****     struct Config
  23:../../libdaisy/src/sys/system.h ****     {
  24:../../libdaisy/src/sys/system.h ****         /** Specifies the system clock frequency that feeds APB/AHB clocks, etc. */
  25:../../libdaisy/src/sys/system.h ****         enum class SysClkFreq
  26:../../libdaisy/src/sys/system.h ****         {
  27:../../libdaisy/src/sys/system.h ****             FREQ_400MHZ,
  28:../../libdaisy/src/sys/system.h ****             FREQ_480MHZ,
  29:../../libdaisy/src/sys/system.h ****         };
  30:../../libdaisy/src/sys/system.h **** 
  31:../../libdaisy/src/sys/system.h ****         /** Method to call on the struct to set to defaults
  32:../../libdaisy/src/sys/system.h ****          ** CPU Freq set to 400MHz
  33:../../libdaisy/src/sys/system.h ****          ** Cache Enabled 
  34:../../libdaisy/src/sys/system.h ****          ** */
  35:../../libdaisy/src/sys/system.h ****         void Defaults()
  36:../../libdaisy/src/sys/system.h ****         {
  37:../../libdaisy/src/sys/system.h ****             cpu_freq   = SysClkFreq::FREQ_400MHZ;
  38:../../libdaisy/src/sys/system.h ****             use_dcache = true;
  39:../../libdaisy/src/sys/system.h ****             use_icache = true;
  40:../../libdaisy/src/sys/system.h ****         }
  41:../../libdaisy/src/sys/system.h **** 
  42:../../libdaisy/src/sys/system.h ****         /** Method to call on the struct to set to boost mode:
  43:../../libdaisy/src/sys/system.h ****          ** CPU Freq set to 480MHz
  44:../../libdaisy/src/sys/system.h ****          ** Cache Enabled 
  45:../../libdaisy/src/sys/system.h ****          ** */
  46:../../libdaisy/src/sys/system.h ****         void Boost()
  47:../../libdaisy/src/sys/system.h ****         {
  48:../../libdaisy/src/sys/system.h ****             cpu_freq   = SysClkFreq::FREQ_480MHZ;
  49:../../libdaisy/src/sys/system.h ****             use_dcache = true;
ARM GAS  /var/folders/0z/b9p8b05s1kb5msq549c5__rh0000gn/T//cc8CuGSI.s 			page 4


  50:../../libdaisy/src/sys/system.h ****             use_icache = true;
  51:../../libdaisy/src/sys/system.h ****         }
  52:../../libdaisy/src/sys/system.h **** 
  53:../../libdaisy/src/sys/system.h ****         SysClkFreq cpu_freq;
  54:../../libdaisy/src/sys/system.h ****         bool       use_dcache;
  55:../../libdaisy/src/sys/system.h ****         bool       use_icache;
  56:../../libdaisy/src/sys/system.h ****     };
  57:../../libdaisy/src/sys/system.h **** 
  58:../../libdaisy/src/sys/system.h ****     System() {}
  59:../../libdaisy/src/sys/system.h ****     ~System() {}
  63              		.loc 3 59 5 view .LVU3
  64              		.loc 3 59 5 is_stmt 0 view .LVU4
  65              	.LBE146:
  66              	.LBB147:
  67              	.LBI147:
  68              		.file 4 "../../libdaisy/src/hid/usb.h"
   1:../../libdaisy/src/hid/usb.h **** #pragma once
   2:../../libdaisy/src/hid/usb.h **** #ifndef DSY_HID_USB_H
   3:../../libdaisy/src/hid/usb.h **** #define DSY_HID_USB_H
   4:../../libdaisy/src/hid/usb.h **** #include <stdint.h>
   5:../../libdaisy/src/hid/usb.h **** #include <stdlib.h>
   6:../../libdaisy/src/hid/usb.h **** 
   7:../../libdaisy/src/hid/usb.h **** namespace daisy
   8:../../libdaisy/src/hid/usb.h **** /** @addtogroup externals
   9:../../libdaisy/src/hid/usb.h ****     @{
  10:../../libdaisy/src/hid/usb.h **** */
  11:../../libdaisy/src/hid/usb.h **** 
  12:../../libdaisy/src/hid/usb.h **** {
  13:../../libdaisy/src/hid/usb.h **** /** 
  14:../../libdaisy/src/hid/usb.h ****     @brief Interface for initializing and using the USB Peripherals on the daisy
  15:../../libdaisy/src/hid/usb.h ****     @author Stephen Hensley
  16:../../libdaisy/src/hid/usb.h ****     @date December 2019
  17:../../libdaisy/src/hid/usb.h **** */
  18:../../libdaisy/src/hid/usb.h **** class UsbHandle
  19:../../libdaisy/src/hid/usb.h **** {
  20:../../libdaisy/src/hid/usb.h ****   public:
  21:../../libdaisy/src/hid/usb.h ****     /** Return values for USBHandle Functions */
  22:../../libdaisy/src/hid/usb.h ****     enum class Result
  23:../../libdaisy/src/hid/usb.h ****     {
  24:../../libdaisy/src/hid/usb.h ****         OK,
  25:../../libdaisy/src/hid/usb.h ****         ERR,
  26:../../libdaisy/src/hid/usb.h ****     };
  27:../../libdaisy/src/hid/usb.h **** 
  28:../../libdaisy/src/hid/usb.h ****     /** Specified which of the two USB Peripherals to initialize. */
  29:../../libdaisy/src/hid/usb.h ****     enum UsbPeriph
  30:../../libdaisy/src/hid/usb.h ****     {
  31:../../libdaisy/src/hid/usb.h ****         FS_INTERNAL, /**< Internal pin */
  32:../../libdaisy/src/hid/usb.h ****         FS_EXTERNAL, /**< FS External D+ pin is Pin 38 (GPIO32). FS External D- pin is Pin 37 (GPIO
  33:../../libdaisy/src/hid/usb.h ****         FS_BOTH,     /**< Both */
  34:../../libdaisy/src/hid/usb.h ****     };
  35:../../libdaisy/src/hid/usb.h **** 
  36:../../libdaisy/src/hid/usb.h **** 
  37:../../libdaisy/src/hid/usb.h ****     /** Function called upon reception of a buffer */
  38:../../libdaisy/src/hid/usb.h ****     typedef void (*ReceiveCallback)(uint8_t* buff, uint32_t* len);
  39:../../libdaisy/src/hid/usb.h **** 
  40:../../libdaisy/src/hid/usb.h ****     UsbHandle() {}
  41:../../libdaisy/src/hid/usb.h **** 
ARM GAS  /var/folders/0z/b9p8b05s1kb5msq549c5__rh0000gn/T//cc8CuGSI.s 			page 5


  42:../../libdaisy/src/hid/usb.h ****     ~UsbHandle() {}
  69              		.loc 4 42 5 is_stmt 1 view .LVU5
  70              		.loc 4 42 5 is_stmt 0 view .LVU6
  71              	.LBE147:
  72              	.LBB148:
  73              	.LBI148:
  74              		.file 5 "../../libdaisy/src/per/adc.h"
   1:../../libdaisy/src/per/adc.h **** #pragma once
   2:../../libdaisy/src/per/adc.h **** #ifndef DSY_ADC_H
   3:../../libdaisy/src/per/adc.h **** #define DSY_ADC_H /**< Macro */
   4:../../libdaisy/src/per/adc.h **** #include <stdint.h>
   5:../../libdaisy/src/per/adc.h **** #include <stdlib.h>
   6:../../libdaisy/src/per/adc.h **** #include "daisy_core.h"
   7:../../libdaisy/src/per/adc.h **** #include "per/gpio.h"
   8:../../libdaisy/src/per/adc.h **** 
   9:../../libdaisy/src/per/adc.h **** #define DSY_ADC_MAX_CHANNELS 14 /**< Maximum number of ADC channels */
  10:../../libdaisy/src/per/adc.h **** 
  11:../../libdaisy/src/per/adc.h **** namespace daisy
  12:../../libdaisy/src/per/adc.h **** {
  13:../../libdaisy/src/per/adc.h **** /** @addtogroup analog_digital_conversion
  14:../../libdaisy/src/per/adc.h ****     @{
  15:../../libdaisy/src/per/adc.h **** */
  16:../../libdaisy/src/per/adc.h **** 
  17:../../libdaisy/src/per/adc.h **** /* While there may not be many configuration options here,
  18:../../libdaisy/src/per/adc.h **** using a struct like this allows us to add more configuration
  19:../../libdaisy/src/per/adc.h **** later without breaking existing functionality.
  20:../../libdaisy/src/per/adc.h **** */
  21:../../libdaisy/src/per/adc.h **** 
  22:../../libdaisy/src/per/adc.h **** /** Configuration Structure for a given channel */
  23:../../libdaisy/src/per/adc.h **** struct AdcChannelConfig
  24:../../libdaisy/src/per/adc.h **** {
  25:../../libdaisy/src/per/adc.h ****     /** Which pin to use for multiplexing */
  26:../../libdaisy/src/per/adc.h ****     enum MuxPin
  27:../../libdaisy/src/per/adc.h ****     {
  28:../../libdaisy/src/per/adc.h ****         MUX_SEL_0,    /**< & */
  29:../../libdaisy/src/per/adc.h ****         MUX_SEL_1,    /**< & */
  30:../../libdaisy/src/per/adc.h ****         MUX_SEL_2,    /**< & */
  31:../../libdaisy/src/per/adc.h ****         MUX_SEL_LAST, /**< & */
  32:../../libdaisy/src/per/adc.h ****     };
  33:../../libdaisy/src/per/adc.h **** 
  34:../../libdaisy/src/per/adc.h ****     /** Initializes a single ADC pin as an ADC. 
  35:../../libdaisy/src/per/adc.h ****     \param pin Pin to init.
  36:../../libdaisy/src/per/adc.h ****      */
  37:../../libdaisy/src/per/adc.h ****     void InitSingle(dsy_gpio_pin pin);
  38:../../libdaisy/src/per/adc.h **** 
  39:../../libdaisy/src/per/adc.h ****     /** 
  40:../../libdaisy/src/per/adc.h ****     Initializes a single ADC pin as a Multiplexed ADC.
  41:../../libdaisy/src/per/adc.h ****     Requires a CD405X Multiplexer connected to the pin.
  42:../../libdaisy/src/per/adc.h ****     You only need to supply the mux pins that are required,
  43:../../libdaisy/src/per/adc.h ****     e.g. a 4052 mux would only require mux_0 and mux_1.
  44:../../libdaisy/src/per/adc.h ****     Internal Callbacks handle the pin addressing.
  45:../../libdaisy/src/per/adc.h ****     \param mux_channels must be 1-8
  46:../../libdaisy/src/per/adc.h ****     \param mux_0 First mux pin
  47:../../libdaisy/src/per/adc.h ****     \param mux_1 Second mux pin
  48:../../libdaisy/src/per/adc.h ****     \param mux_2 Third mux pin
  49:../../libdaisy/src/per/adc.h ****     \param adc_pin &
  50:../../libdaisy/src/per/adc.h ****     */
ARM GAS  /var/folders/0z/b9p8b05s1kb5msq549c5__rh0000gn/T//cc8CuGSI.s 			page 6


  51:../../libdaisy/src/per/adc.h ****     void InitMux(dsy_gpio_pin adc_pin,
  52:../../libdaisy/src/per/adc.h ****                  size_t       mux_channels,
  53:../../libdaisy/src/per/adc.h ****                  dsy_gpio_pin mux_0,
  54:../../libdaisy/src/per/adc.h ****                  dsy_gpio_pin mux_1 = {DSY_GPIOX, 0},
  55:../../libdaisy/src/per/adc.h ****                  dsy_gpio_pin mux_2 = {DSY_GPIOX, 0});
  56:../../libdaisy/src/per/adc.h **** 
  57:../../libdaisy/src/per/adc.h ****     dsy_gpio pin_;                   /**< & */
  58:../../libdaisy/src/per/adc.h ****     dsy_gpio mux_pin_[MUX_SEL_LAST]; /**< & */
  59:../../libdaisy/src/per/adc.h ****     uint8_t  mux_channels_;          /**< & */
  60:../../libdaisy/src/per/adc.h **** };
  61:../../libdaisy/src/per/adc.h **** 
  62:../../libdaisy/src/per/adc.h **** /**
  63:../../libdaisy/src/per/adc.h ****    Handler for analog to digital conversion
  64:../../libdaisy/src/per/adc.h **** */
  65:../../libdaisy/src/per/adc.h **** class AdcHandle
  66:../../libdaisy/src/per/adc.h **** {
  67:../../libdaisy/src/per/adc.h ****   public:
  68:../../libdaisy/src/per/adc.h ****     /** Supported oversampling amounts */
  69:../../libdaisy/src/per/adc.h ****     enum OverSampling
  70:../../libdaisy/src/per/adc.h ****     {
  71:../../libdaisy/src/per/adc.h ****         OVS_NONE, /**< & */
  72:../../libdaisy/src/per/adc.h ****         OVS_4,    /**< & */
  73:../../libdaisy/src/per/adc.h ****         OVS_8,    /**< & */
  74:../../libdaisy/src/per/adc.h ****         OVS_16,   /**< & */
  75:../../libdaisy/src/per/adc.h ****         OVS_32,   /**< & */
  76:../../libdaisy/src/per/adc.h ****         OVS_64,   /**< & */
  77:../../libdaisy/src/per/adc.h ****         OVS_128,  /**< & */
  78:../../libdaisy/src/per/adc.h ****         OVS_256,  /**< & */
  79:../../libdaisy/src/per/adc.h ****         OVS_512,  /**< & */
  80:../../libdaisy/src/per/adc.h ****         OVS_1024, /**< & */
  81:../../libdaisy/src/per/adc.h ****         OVS_LAST, /**< & */
  82:../../libdaisy/src/per/adc.h ****     };
  83:../../libdaisy/src/per/adc.h **** 
  84:../../libdaisy/src/per/adc.h ****     AdcHandle() {}
  85:../../libdaisy/src/per/adc.h ****     ~AdcHandle() {}
  75              		.loc 5 85 5 is_stmt 1 view .LVU7
  76              		.loc 5 85 5 is_stmt 0 view .LVU8
  77              	.LBE148:
  78              	.LBB149:
  79              	.LBI149:
  80              		.file 6 "../../libdaisy/src/hid/audio.h"
   1:../../libdaisy/src/hid/audio.h **** #ifndef DSY_AUDIO_H
   2:../../libdaisy/src/hid/audio.h **** #define DSY_AUDIO_H /**< & */
   3:../../libdaisy/src/hid/audio.h **** 
   4:../../libdaisy/src/hid/audio.h **** #include "per/sai.h"
   5:../../libdaisy/src/hid/audio.h **** 
   6:../../libdaisy/src/hid/audio.h **** namespace daisy
   7:../../libdaisy/src/hid/audio.h **** {
   8:../../libdaisy/src/hid/audio.h **** class AudioHandle
   9:../../libdaisy/src/hid/audio.h **** {
  10:../../libdaisy/src/hid/audio.h ****   public:
  11:../../libdaisy/src/hid/audio.h ****     /** Manually configurable details about the Audio Engine */
  12:../../libdaisy/src/hid/audio.h ****     /** TODO: Figure out how to get samplerate in here. */
  13:../../libdaisy/src/hid/audio.h ****     struct Config
  14:../../libdaisy/src/hid/audio.h ****     {
  15:../../libdaisy/src/hid/audio.h ****         size_t                        blocksize;
  16:../../libdaisy/src/hid/audio.h ****         SaiHandle::Config::SampleRate samplerate;
ARM GAS  /var/folders/0z/b9p8b05s1kb5msq549c5__rh0000gn/T//cc8CuGSI.s 			page 7


  17:../../libdaisy/src/hid/audio.h ****         float                         postgain;
  18:../../libdaisy/src/hid/audio.h ****     };
  19:../../libdaisy/src/hid/audio.h **** 
  20:../../libdaisy/src/hid/audio.h ****     enum class Result
  21:../../libdaisy/src/hid/audio.h ****     {
  22:../../libdaisy/src/hid/audio.h ****         OK,
  23:../../libdaisy/src/hid/audio.h ****         ERR,
  24:../../libdaisy/src/hid/audio.h ****     };
  25:../../libdaisy/src/hid/audio.h **** 
  26:../../libdaisy/src/hid/audio.h ****     /** Non-Interleaving input buffer
  27:../../libdaisy/src/hid/audio.h ****      * Buffer arranged by float[chn][sample] 
  28:../../libdaisy/src/hid/audio.h ****      * const so that the user can't modify the input
  29:../../libdaisy/src/hid/audio.h ****     */
  30:../../libdaisy/src/hid/audio.h ****     typedef const float* const* InputBuffer;
  31:../../libdaisy/src/hid/audio.h **** 
  32:../../libdaisy/src/hid/audio.h ****     /** Non-Interleaving output buffer
  33:../../libdaisy/src/hid/audio.h ****      * Arranged by float[chn][sample] 
  34:../../libdaisy/src/hid/audio.h ****     */
  35:../../libdaisy/src/hid/audio.h ****     typedef float** OutputBuffer;
  36:../../libdaisy/src/hid/audio.h **** 
  37:../../libdaisy/src/hid/audio.h ****     /** Type for a Non-Interleaving audio callback 
  38:../../libdaisy/src/hid/audio.h ****    * Non-Interleaving audio callbacks in daisy will be of this type
  39:../../libdaisy/src/hid/audio.h ****   */
  40:../../libdaisy/src/hid/audio.h ****     typedef void (*AudioCallback)(InputBuffer  in,
  41:../../libdaisy/src/hid/audio.h ****                                   OutputBuffer out,
  42:../../libdaisy/src/hid/audio.h ****                                   size_t       size);
  43:../../libdaisy/src/hid/audio.h **** 
  44:../../libdaisy/src/hid/audio.h ****     /** Interleaving Input buffer
  45:../../libdaisy/src/hid/audio.h ****      ** audio is prepared as { L0, R0, L1, R1, . . . LN, RN }]
  46:../../libdaisy/src/hid/audio.h ****      ** this is const, as the user shouldn't modify it
  47:../../libdaisy/src/hid/audio.h ****     */
  48:../../libdaisy/src/hid/audio.h ****     typedef const float* InterleavingInputBuffer;
  49:../../libdaisy/src/hid/audio.h **** 
  50:../../libdaisy/src/hid/audio.h ****     /** Interleaving Output buffer 
  51:../../libdaisy/src/hid/audio.h ****      ** audio is prepared as { L0, R0, L1, R1, . . . LN, RN }
  52:../../libdaisy/src/hid/audio.h ****     */
  53:../../libdaisy/src/hid/audio.h ****     typedef float* InterleavingOutputBuffer;
  54:../../libdaisy/src/hid/audio.h **** 
  55:../../libdaisy/src/hid/audio.h ****     /** Interleaving Audio Callback 
  56:../../libdaisy/src/hid/audio.h ****    * Interleaving audio callbacks in daisy must be of this type
  57:../../libdaisy/src/hid/audio.h ****   */
  58:../../libdaisy/src/hid/audio.h ****     typedef void (*InterleavingAudioCallback)(InterleavingInputBuffer  in,
  59:../../libdaisy/src/hid/audio.h ****                                               InterleavingOutputBuffer out,
  60:../../libdaisy/src/hid/audio.h ****                                               size_t                   size);
  61:../../libdaisy/src/hid/audio.h **** 
  62:../../libdaisy/src/hid/audio.h ****     AudioHandle() : pimpl_(nullptr) {}
  63:../../libdaisy/src/hid/audio.h ****     ~AudioHandle() {}
  81              		.loc 6 63 5 is_stmt 1 view .LVU9
  82              		.loc 6 63 5 is_stmt 0 view .LVU10
  83              	.LBE149:
  84              		.loc 2 22 19 view .LVU11
  85 0000 7047     		bx	lr
  86              		.cfi_endproc
  87              	.LFE2013:
  89              		.weak	_ZN5daisy9DaisySeedD1Ev
  90              		.thumb_set _ZN5daisy9DaisySeedD1Ev,_ZN5daisy9DaisySeedD2Ev
  91 0002 00BF     		.section	.text._ZN7daisysp5AdEnvD2Ev,"axG",%progbits,_ZN7daisysp5AdEnvD5Ev,comdat
ARM GAS  /var/folders/0z/b9p8b05s1kb5msq549c5__rh0000gn/T//cc8CuGSI.s 			page 8


  92              		.align	1
  93              		.p2align 2,,3
  94              		.weak	_ZN7daisysp5AdEnvD2Ev
  95              		.syntax unified
  96              		.thumb
  97              		.thumb_func
  98              		.fpu fpv5-d16
 100              	_ZN7daisysp5AdEnvD2Ev:
 101              	.LVL2:
 102              	.LFB2022:
 103              		.file 7 "../../DaisySP/Source/Control/adenv.h"
   1:../../DaisySP/Source/Control/adenv.h **** #pragma once
   2:../../DaisySP/Source/Control/adenv.h **** #ifndef ADENV_H
   3:../../DaisySP/Source/Control/adenv.h **** #define ADENV_H
   4:../../DaisySP/Source/Control/adenv.h **** #include <stdint.h>
   5:../../DaisySP/Source/Control/adenv.h **** #ifdef __cplusplus
   6:../../DaisySP/Source/Control/adenv.h **** 
   7:../../DaisySP/Source/Control/adenv.h **** namespace daisysp
   8:../../DaisySP/Source/Control/adenv.h **** {
   9:../../DaisySP/Source/Control/adenv.h **** /** Distinct stages that the phase of the envelope can be located in.
  10:../../DaisySP/Source/Control/adenv.h ****     @see AdEnv
  11:../../DaisySP/Source/Control/adenv.h **** */
  12:../../DaisySP/Source/Control/adenv.h **** enum AdEnvSegment
  13:../../DaisySP/Source/Control/adenv.h **** {
  14:../../DaisySP/Source/Control/adenv.h ****     /** located at phase location 0, and not currently running */
  15:../../DaisySP/Source/Control/adenv.h ****     ADENV_SEG_IDLE,
  16:../../DaisySP/Source/Control/adenv.h ****     /** First segment of envelope where phase moves from MIN value to MAX value */
  17:../../DaisySP/Source/Control/adenv.h ****     ADENV_SEG_ATTACK,
  18:../../DaisySP/Source/Control/adenv.h ****     /** Second segment of envelope where phase moves from MAX to MIN value */
  19:../../DaisySP/Source/Control/adenv.h ****     ADENV_SEG_DECAY,
  20:../../DaisySP/Source/Control/adenv.h ****     /** The final segment of the envelope (currently decay) */
  21:../../DaisySP/Source/Control/adenv.h ****     ADENV_SEG_LAST,
  22:../../DaisySP/Source/Control/adenv.h **** };
  23:../../DaisySP/Source/Control/adenv.h **** 
  24:../../DaisySP/Source/Control/adenv.h **** /** Trigger-able envelope with adjustable min/max, and independent per-segment time control.
  25:../../DaisySP/Source/Control/adenv.h **** 
  26:../../DaisySP/Source/Control/adenv.h ****     \author shensley
  27:../../DaisySP/Source/Control/adenv.h ****     \todo - Add Cycling
  28:../../DaisySP/Source/Control/adenv.h ****     \todo - Implement Curve (its only linear for now).
  29:../../DaisySP/Source/Control/adenv.h ****     \todo - Maybe make this an ADsr_ that has AD/AR/Asr_ modes.
  30:../../DaisySP/Source/Control/adenv.h ****  */
  31:../../DaisySP/Source/Control/adenv.h **** class AdEnv
  32:../../DaisySP/Source/Control/adenv.h **** {
  33:../../DaisySP/Source/Control/adenv.h ****   public:
  34:../../DaisySP/Source/Control/adenv.h ****     AdEnv() {}
  35:../../DaisySP/Source/Control/adenv.h ****     ~AdEnv() {}
 104              		.loc 7 35 5 is_stmt 1 view -0
 105              		.cfi_startproc
 106              		@ args = 0, pretend = 0, frame = 0
 107              		@ frame_needed = 0, uses_anonymous_args = 0
 108              		@ link register save eliminated.
 109              		.loc 7 35 15 is_stmt 0 view .LVU13
 110 0000 7047     		bx	lr
 111              		.cfi_endproc
 112              	.LFE2022:
 114              		.weak	_ZN7daisysp5AdEnvD1Ev
 115              		.thumb_set _ZN7daisysp5AdEnvD1Ev,_ZN7daisysp5AdEnvD2Ev
ARM GAS  /var/folders/0z/b9p8b05s1kb5msq549c5__rh0000gn/T//cc8CuGSI.s 			page 9


 116 0002 00BF     		.section	.text._ZN7daisysp10OscillatorD2Ev,"axG",%progbits,_ZN7daisysp10OscillatorD5Ev,comdat
 117              		.align	1
 118              		.p2align 2,,3
 119              		.weak	_ZN7daisysp10OscillatorD2Ev
 120              		.syntax unified
 121              		.thumb
 122              		.thumb_func
 123              		.fpu fpv5-d16
 125              	_ZN7daisysp10OscillatorD2Ev:
 126              	.LVL3:
 127              	.LFB3703:
 128              		.file 8 "../../DaisySP/Source/Synthesis/oscillator.h"
   1:../../DaisySP/Source/Synthesis/oscillator.h **** #pragma once
   2:../../DaisySP/Source/Synthesis/oscillator.h **** #ifndef DSY_OSCILLATOR_H
   3:../../DaisySP/Source/Synthesis/oscillator.h **** #define DSY_OSCILLATOR_H
   4:../../DaisySP/Source/Synthesis/oscillator.h **** #include <stdint.h>
   5:../../DaisySP/Source/Synthesis/oscillator.h **** #include "Utility/dsp.h"
   6:../../DaisySP/Source/Synthesis/oscillator.h **** #ifdef __cplusplus
   7:../../DaisySP/Source/Synthesis/oscillator.h **** 
   8:../../DaisySP/Source/Synthesis/oscillator.h **** namespace daisysp
   9:../../DaisySP/Source/Synthesis/oscillator.h **** {
  10:../../DaisySP/Source/Synthesis/oscillator.h **** /** Synthesis of several waveforms, including polyBLEP bandlimited waveforms.
  11:../../DaisySP/Source/Synthesis/oscillator.h **** */
  12:../../DaisySP/Source/Synthesis/oscillator.h **** class Oscillator
  13:../../DaisySP/Source/Synthesis/oscillator.h **** {
  14:../../DaisySP/Source/Synthesis/oscillator.h ****   public:
  15:../../DaisySP/Source/Synthesis/oscillator.h ****     Oscillator() {}
  16:../../DaisySP/Source/Synthesis/oscillator.h ****     ~Oscillator() {}
 129              		.loc 8 16 5 is_stmt 1 view -0
 130              		.cfi_startproc
 131              		@ args = 0, pretend = 0, frame = 0
 132              		@ frame_needed = 0, uses_anonymous_args = 0
 133              		@ link register save eliminated.
 134              		.loc 8 16 20 is_stmt 0 view .LVU15
 135 0000 7047     		bx	lr
 136              		.cfi_endproc
 137              	.LFE3703:
 139              		.weak	_ZN7daisysp10OscillatorD1Ev
 140              		.thumb_set _ZN7daisysp10OscillatorD1Ev,_ZN7daisysp10OscillatorD2Ev
 141 0002 00BF     		.section	.text._ZN5daisy11MidiHandlerINS_17MidiUartTransportEED2Ev,"axG",%progbits,_ZN5daisy11Midi
 142              		.align	1
 143              		.p2align 2,,3
 144              		.weak	_ZN5daisy11MidiHandlerINS_17MidiUartTransportEED2Ev
 145              		.syntax unified
 146              		.thumb
 147              		.thumb_func
 148              		.fpu fpv5-d16
 150              	_ZN5daisy11MidiHandlerINS_17MidiUartTransportEED2Ev:
 151              	.LVL4:
 152              	.LFB4824:
 153              		.file 9 "../../libdaisy/src/hid/midi.h"
   1:../../libdaisy/src/hid/midi.h **** #pragma once
   2:../../libdaisy/src/hid/midi.h **** #ifndef DSY_MIDI_H
   3:../../libdaisy/src/hid/midi.h **** #define DSY_MIDI_H
   4:../../libdaisy/src/hid/midi.h **** 
   5:../../libdaisy/src/hid/midi.h **** // TODO: make this adjustable
   6:../../libdaisy/src/hid/midi.h **** #define SYSEX_BUFFER_LEN 128
ARM GAS  /var/folders/0z/b9p8b05s1kb5msq549c5__rh0000gn/T//cc8CuGSI.s 			page 10


   7:../../libdaisy/src/hid/midi.h **** 
   8:../../libdaisy/src/hid/midi.h **** #include <stdint.h>
   9:../../libdaisy/src/hid/midi.h **** #include <stdlib.h>
  10:../../libdaisy/src/hid/midi.h **** #include "per/uart.h"
  11:../../libdaisy/src/hid/midi.h **** #include "util/ringbuffer.h"
  12:../../libdaisy/src/hid/midi.h **** #include "hid/MidiEvent.h"
  13:../../libdaisy/src/hid/midi.h **** #include "sys/system.h"
  14:../../libdaisy/src/hid/midi.h **** 
  15:../../libdaisy/src/hid/midi.h **** namespace daisy
  16:../../libdaisy/src/hid/midi.h **** {
  17:../../libdaisy/src/hid/midi.h **** /** @addtogroup external 
  18:../../libdaisy/src/hid/midi.h ****     @{ 
  19:../../libdaisy/src/hid/midi.h **** */
  20:../../libdaisy/src/hid/midi.h **** 
  21:../../libdaisy/src/hid/midi.h **** class MidiUartTransport
  22:../../libdaisy/src/hid/midi.h **** {
  23:../../libdaisy/src/hid/midi.h ****   public:
  24:../../libdaisy/src/hid/midi.h ****     MidiUartTransport() {}
  25:../../libdaisy/src/hid/midi.h ****     ~MidiUartTransport() {}
  26:../../libdaisy/src/hid/midi.h **** 
  27:../../libdaisy/src/hid/midi.h ****     struct Config
  28:../../libdaisy/src/hid/midi.h ****     {
  29:../../libdaisy/src/hid/midi.h ****         UartHandler::Config::Peripheral periph;
  30:../../libdaisy/src/hid/midi.h ****         dsy_gpio_pin                    rx;
  31:../../libdaisy/src/hid/midi.h ****         dsy_gpio_pin                    tx;
  32:../../libdaisy/src/hid/midi.h **** 
  33:../../libdaisy/src/hid/midi.h ****         Config()
  34:../../libdaisy/src/hid/midi.h ****         {
  35:../../libdaisy/src/hid/midi.h ****             periph = UartHandler::Config::Peripheral::USART_1;
  36:../../libdaisy/src/hid/midi.h ****             rx     = {DSY_GPIOB, 7};
  37:../../libdaisy/src/hid/midi.h ****             tx     = {DSY_GPIOB, 6};
  38:../../libdaisy/src/hid/midi.h ****         }
  39:../../libdaisy/src/hid/midi.h ****     };
  40:../../libdaisy/src/hid/midi.h **** 
  41:../../libdaisy/src/hid/midi.h ****     inline void Init(Config config)
  42:../../libdaisy/src/hid/midi.h ****     {
  43:../../libdaisy/src/hid/midi.h ****         UartHandler::Config uart_config;
  44:../../libdaisy/src/hid/midi.h **** 
  45:../../libdaisy/src/hid/midi.h ****         //defaults
  46:../../libdaisy/src/hid/midi.h ****         uart_config.baudrate   = 31250;
  47:../../libdaisy/src/hid/midi.h ****         uart_config.stopbits   = UartHandler::Config::StopBits::BITS_1;
  48:../../libdaisy/src/hid/midi.h ****         uart_config.parity     = UartHandler::Config::Parity::NONE;
  49:../../libdaisy/src/hid/midi.h ****         uart_config.mode       = UartHandler::Config::Mode::TX_RX;
  50:../../libdaisy/src/hid/midi.h ****         uart_config.wordlength = UartHandler::Config::WordLength::BITS_8;
  51:../../libdaisy/src/hid/midi.h **** 
  52:../../libdaisy/src/hid/midi.h ****         //user settings
  53:../../libdaisy/src/hid/midi.h ****         uart_config.periph        = config.periph;
  54:../../libdaisy/src/hid/midi.h ****         uart_config.pin_config.rx = config.rx;
  55:../../libdaisy/src/hid/midi.h ****         uart_config.pin_config.tx = config.tx;
  56:../../libdaisy/src/hid/midi.h **** 
  57:../../libdaisy/src/hid/midi.h ****         uart_.Init(uart_config);
  58:../../libdaisy/src/hid/midi.h ****     }
  59:../../libdaisy/src/hid/midi.h **** 
  60:../../libdaisy/src/hid/midi.h ****     inline void    StartRx() { uart_.StartRx(); }
  61:../../libdaisy/src/hid/midi.h ****     inline size_t  Readable() { return uart_.Readable(); }
  62:../../libdaisy/src/hid/midi.h ****     inline uint8_t Rx() { return uart_.PopRx(); }
  63:../../libdaisy/src/hid/midi.h ****     inline bool    RxActive() { return uart_.RxActive(); }
ARM GAS  /var/folders/0z/b9p8b05s1kb5msq549c5__rh0000gn/T//cc8CuGSI.s 			page 11


  64:../../libdaisy/src/hid/midi.h ****     inline void    FlushRx() { uart_.FlushRx(); }
  65:../../libdaisy/src/hid/midi.h ****     inline void    Tx(uint8_t* buff, size_t size) { uart_.PollTx(buff, size); }
  66:../../libdaisy/src/hid/midi.h **** 
  67:../../libdaisy/src/hid/midi.h ****   private:
  68:../../libdaisy/src/hid/midi.h ****     UartHandler uart_;
  69:../../libdaisy/src/hid/midi.h **** };
  70:../../libdaisy/src/hid/midi.h **** 
  71:../../libdaisy/src/hid/midi.h **** /** 
  72:../../libdaisy/src/hid/midi.h ****     @brief Simple MIDI Handler \n 
  73:../../libdaisy/src/hid/midi.h ****     Parses bytes from an input into valid MidiEvents. \n 
  74:../../libdaisy/src/hid/midi.h ****     The MidiEvents fill a FIFO queue that the user can pop messages from.
  75:../../libdaisy/src/hid/midi.h ****     @author shensley
  76:../../libdaisy/src/hid/midi.h ****     @date March 2020
  77:../../libdaisy/src/hid/midi.h **** */
  78:../../libdaisy/src/hid/midi.h **** template <typename Transport>
  79:../../libdaisy/src/hid/midi.h **** class MidiHandler
  80:../../libdaisy/src/hid/midi.h **** {
  81:../../libdaisy/src/hid/midi.h ****   public:
  82:../../libdaisy/src/hid/midi.h ****     MidiHandler() {}
  83:../../libdaisy/src/hid/midi.h ****     ~MidiHandler() {}
 154              		.loc 9 83 5 is_stmt 1 view -0
 155              		.cfi_startproc
 156              		@ args = 0, pretend = 0, frame = 0
 157              		@ frame_needed = 0, uses_anonymous_args = 0
 158              		@ link register save eliminated.
 159              	.LBB150:
 160              	.LBI150:
  25:../../libdaisy/src/hid/midi.h **** 
 161              		.loc 9 25 5 view .LVU17
  25:../../libdaisy/src/hid/midi.h **** 
 162              		.loc 9 25 5 is_stmt 0 view .LVU18
 163              	.LBE150:
 164              		.loc 9 83 21 view .LVU19
 165 0000 7047     		bx	lr
 166              		.cfi_endproc
 167              	.LFE4824:
 169              		.weak	_ZN5daisy11MidiHandlerINS_17MidiUartTransportEED1Ev
 170              		.thumb_set _ZN5daisy11MidiHandlerINS_17MidiUartTransportEED1Ev,_ZN5daisy11MidiHandlerINS_17MidiUar
 171 0002 00BF     		.section	.text._Z13AudioCallbackPKfPfj,"ax",%progbits
 172              		.align	1
 173              		.p2align 2,,3
 174              		.global	_Z13AudioCallbackPKfPfj
 175              		.syntax unified
 176              		.thumb
 177              		.thumb_func
 178              		.fpu fpv5-d16
 180              	_Z13AudioCallbackPKfPfj:
 181              	.LVL5:
 182              	.LFB4241:
 183              		.file 10 "DrumModule.cpp"
   1:DrumModule.cpp **** #include "daisy_seed.h"
   2:DrumModule.cpp **** #include "daisysp.h"
   3:DrumModule.cpp **** 
   4:DrumModule.cpp **** // Use the daisy namespace to prevent having to type
   5:DrumModule.cpp **** // daisy:: before all libdaisy functions
   6:DrumModule.cpp **** using namespace daisy;
   7:DrumModule.cpp **** using namespace daisysp;
ARM GAS  /var/folders/0z/b9p8b05s1kb5msq549c5__rh0000gn/T//cc8CuGSI.s 			page 12


   8:DrumModule.cpp **** 
   9:DrumModule.cpp **** // Declare a DaisySeed object called hardware
  10:DrumModule.cpp **** DaisySeed  hardware;
  11:DrumModule.cpp **** Oscillator osc;
  12:DrumModule.cpp **** AdEnv      env;
  13:DrumModule.cpp **** 
  14:DrumModule.cpp **** MidiUartHandler midi;
  15:DrumModule.cpp **** 
  16:DrumModule.cpp **** Switch button1;
  17:DrumModule.cpp **** 
  18:DrumModule.cpp **** int note = 60;
  19:DrumModule.cpp **** 
  20:DrumModule.cpp **** void AudioCallback(AudioHandle::InterleavingInputBuffer  in,
  21:DrumModule.cpp ****                    AudioHandle::InterleavingOutputBuffer out,
  22:DrumModule.cpp ****                    size_t                                size)
  23:DrumModule.cpp **** {
 184              		.loc 10 23 1 is_stmt 1 view -0
 185              		.cfi_startproc
 186              		@ args = 0, pretend = 0, frame = 0
 187              		@ frame_needed = 0, uses_anonymous_args = 0
  24:DrumModule.cpp **** 
  25:DrumModule.cpp ****     //Fill the block with samples
  26:DrumModule.cpp ****     for(size_t i = 0; i < size; i += 2)
 188              		.loc 10 26 5 view .LVU21
 189              	.LBB151:
 190              		.loc 10 26 25 view .LVU22
 191 0000 8AB1     		cbz	r2, .L15
 192 0002 013A     		subs	r2, r2, #1
 193              	.LVL6:
 194              		.loc 10 26 25 is_stmt 0 view .LVU23
 195              	.LBE151:
  23:DrumModule.cpp **** 
 196              		.loc 10 23 1 view .LVU24
 197 0004 70B5     		push	{r4, r5, r6, lr}
 198              		.cfi_def_cfa_offset 16
 199              		.cfi_offset 4, -16
 200              		.cfi_offset 5, -12
 201              		.cfi_offset 6, -8
 202              		.cfi_offset 14, -4
 203 0006 0C46     		mov	r4, r1
 204              	.LBB156:
 205              		.loc 10 26 25 view .LVU25
 206 0008 0025     		movs	r5, #0
 207 000a 5608     		lsrs	r6, r2, #1
 208              	.LVL7:
 209              	.L9:
 210              	.LBB152:
  27:DrumModule.cpp ****     {
  28:DrumModule.cpp ****         //Get the next envelope value
  29:DrumModule.cpp ****         //get the next oscillator sample
  30:DrumModule.cpp ****         float osc_out = osc.Process();
 211              		.loc 10 30 9 is_stmt 1 discriminator 2 view .LVU26
 212              		.loc 10 30 36 is_stmt 0 discriminator 2 view .LVU27
 213 000c 0648     		ldr	r0, .L18
 214              	.LBE152:
  26:DrumModule.cpp ****     {
 215              		.loc 10 26 25 discriminator 2 view .LVU28
ARM GAS  /var/folders/0z/b9p8b05s1kb5msq549c5__rh0000gn/T//cc8CuGSI.s 			page 13


 216 000e 0834     		adds	r4, r4, #8
 217              	.LBB153:
 218              		.loc 10 30 36 discriminator 2 view .LVU29
 219 0010 FFF7FEFF 		bl	_ZN7daisysp10Oscillator7ProcessEv
 220              	.LVL8:
  31:DrumModule.cpp **** 
  32:DrumModule.cpp ****         //Set the left and right outputs
  33:DrumModule.cpp ****         out[i]     = osc_out;
 221              		.loc 10 33 9 is_stmt 1 discriminator 2 view .LVU30
 222              	.LBE153:
  26:DrumModule.cpp ****     {
 223              		.loc 10 26 25 is_stmt 0 discriminator 2 view .LVU31
 224 0014 AE42     		cmp	r6, r5
 225              	.LBB154:
 226              		.loc 10 33 20 discriminator 2 view .LVU32
 227 0016 04ED020A 		vstr.32	s0, [r4, #-8]
  34:DrumModule.cpp ****         out[i + 1] = osc_out;
 228              		.loc 10 34 9 is_stmt 1 discriminator 2 view .LVU33
 229              	.LBE154:
  26:DrumModule.cpp ****     {
 230              		.loc 10 26 25 is_stmt 0 discriminator 2 view .LVU34
 231 001a 05F10105 		add	r5, r5, #1
 232              	.LVL9:
 233              	.LBB155:
 234              		.loc 10 34 20 discriminator 2 view .LVU35
 235 001e 04ED010A 		vstr.32	s0, [r4, #-4]
 236              	.LBE155:
  26:DrumModule.cpp ****     {
 237              		.loc 10 26 5 is_stmt 1 discriminator 2 view .LVU36
 238              	.LVL10:
  26:DrumModule.cpp ****     {
 239              		.loc 10 26 25 discriminator 2 view .LVU37
 240 0022 F3D1     		bne	.L9
 241              	.LBE156:
  35:DrumModule.cpp ****     }
  36:DrumModule.cpp **** }
 242              		.loc 10 36 1 is_stmt 0 view .LVU38
 243 0024 70BD     		pop	{r4, r5, r6, pc}
 244              	.LVL11:
 245              	.L15:
 246              		.cfi_def_cfa_offset 0
 247              		.cfi_restore 4
 248              		.cfi_restore 5
 249              		.cfi_restore 6
 250              		.cfi_restore 14
 251              		.loc 10 36 1 view .LVU39
 252 0026 7047     		bx	lr
 253              	.L19:
 254              		.align	2
 255              	.L18:
 256 0028 00000000 		.word	.LANCHOR0
 257              		.cfi_endproc
 258              	.LFE4241:
 260              		.section	.text._Z17HandleMidiMessageN5daisy9MidiEventE,"ax",%progbits
 261              		.align	1
 262              		.p2align 2,,3
 263              		.global	_Z17HandleMidiMessageN5daisy9MidiEventE
ARM GAS  /var/folders/0z/b9p8b05s1kb5msq549c5__rh0000gn/T//cc8CuGSI.s 			page 14


 264              		.syntax unified
 265              		.thumb
 266              		.thumb_func
 267              		.fpu fpv5-d16
 269              	_Z17HandleMidiMessageN5daisy9MidiEventE:
 270              	.LFB4242:
  37:DrumModule.cpp **** 
  38:DrumModule.cpp **** 
  39:DrumModule.cpp **** // Typical Switch case for Message Type.
  40:DrumModule.cpp **** void HandleMidiMessage(MidiEvent m)
  41:DrumModule.cpp **** {
 271              		.loc 10 41 1 is_stmt 1 view -0
 272              		.cfi_startproc
 273              		@ args = 144, pretend = 16, frame = 0
 274              		@ frame_needed = 0, uses_anonymous_args = 0
 275 0000 84B0     		sub	sp, sp, #16
 276              		.cfi_def_cfa_offset 16
 277 0002 38B5     		push	{r3, r4, r5, lr}
 278              		.cfi_def_cfa_offset 32
 279              		.cfi_offset 3, -32
 280              		.cfi_offset 4, -28
 281              		.cfi_offset 5, -24
 282              		.cfi_offset 14, -20
 283              		.loc 10 41 1 is_stmt 0 view .LVU41
 284 0004 04AC     		add	r4, sp, #16
 285 0006 84E80F00 		stm	r4, {r0, r1, r2, r3}
 286 000a 9DF81030 		ldrb	r3, [sp, #16]	@ zero_extendqisi2
 287              	.LVL12:
  42:DrumModule.cpp ****     if (m.type == NoteOn) {
 288              		.loc 10 42 5 is_stmt 1 view .LVU42
 289              	.LBB169:
 290 000e 012B     		cmp	r3, #1
 291 0010 07D0     		beq	.L26
  43:DrumModule.cpp ****         NoteOnEvent noteOn = m.AsNoteOn();
  44:DrumModule.cpp ****         note = noteOn.note;
  45:DrumModule.cpp ****         osc.SetFreq(mtof(note));
  46:DrumModule.cpp ****         osc.SetAmp(noteOn.velocity > 0);
  47:DrumModule.cpp ****     }
  48:DrumModule.cpp ****     else if (m.type == NoteOff) {
 292              		.loc 10 48 10 view .LVU43
 293 0012 13B9     		cbnz	r3, .L20
  49:DrumModule.cpp ****         osc.SetAmp(0);
 294              		.loc 10 49 9 view .LVU44
 295              	.LVL13:
 296              	.LBB170:
 297              	.LBI170:
  17:../../DaisySP/Source/Synthesis/oscillator.h ****     /** Choices for output waveforms, POLYBLEP are appropriately labeled. Others are naive forms.
  18:../../DaisySP/Source/Synthesis/oscillator.h ****     */
  19:../../DaisySP/Source/Synthesis/oscillator.h ****     enum
  20:../../DaisySP/Source/Synthesis/oscillator.h ****     {
  21:../../DaisySP/Source/Synthesis/oscillator.h ****         WAVE_SIN,
  22:../../DaisySP/Source/Synthesis/oscillator.h ****         WAVE_TRI,
  23:../../DaisySP/Source/Synthesis/oscillator.h ****         WAVE_SAW,
  24:../../DaisySP/Source/Synthesis/oscillator.h ****         WAVE_RAMP,
  25:../../DaisySP/Source/Synthesis/oscillator.h ****         WAVE_SQUARE,
  26:../../DaisySP/Source/Synthesis/oscillator.h ****         WAVE_POLYBLEP_TRI,
  27:../../DaisySP/Source/Synthesis/oscillator.h ****         WAVE_POLYBLEP_SAW,
ARM GAS  /var/folders/0z/b9p8b05s1kb5msq549c5__rh0000gn/T//cc8CuGSI.s 			page 15


  28:../../DaisySP/Source/Synthesis/oscillator.h ****         WAVE_POLYBLEP_SQUARE,
  29:../../DaisySP/Source/Synthesis/oscillator.h ****         WAVE_LAST,
  30:../../DaisySP/Source/Synthesis/oscillator.h ****     };
  31:../../DaisySP/Source/Synthesis/oscillator.h **** 
  32:../../DaisySP/Source/Synthesis/oscillator.h **** 
  33:../../DaisySP/Source/Synthesis/oscillator.h ****     /** Initializes the Oscillator
  34:../../DaisySP/Source/Synthesis/oscillator.h **** 
  35:../../DaisySP/Source/Synthesis/oscillator.h ****         \param sample_rate - sample rate of the audio engine being run, and the frequency that the 
  36:../../DaisySP/Source/Synthesis/oscillator.h **** 
  37:../../DaisySP/Source/Synthesis/oscillator.h ****         Defaults:
  38:../../DaisySP/Source/Synthesis/oscillator.h ****         - freq_ = 100 Hz
  39:../../DaisySP/Source/Synthesis/oscillator.h ****         - amp_ = 0.5
  40:../../DaisySP/Source/Synthesis/oscillator.h ****         - waveform_ = sine wave.
  41:../../DaisySP/Source/Synthesis/oscillator.h ****     */
  42:../../DaisySP/Source/Synthesis/oscillator.h ****     void Init(float sample_rate)
  43:../../DaisySP/Source/Synthesis/oscillator.h ****     {
  44:../../DaisySP/Source/Synthesis/oscillator.h ****         sr_        = sample_rate;
  45:../../DaisySP/Source/Synthesis/oscillator.h ****         sr_recip_  = 1.0f / sample_rate;
  46:../../DaisySP/Source/Synthesis/oscillator.h ****         freq_      = 100.0f;
  47:../../DaisySP/Source/Synthesis/oscillator.h ****         amp_       = 0.5f;
  48:../../DaisySP/Source/Synthesis/oscillator.h ****         phase_     = 0.0f;
  49:../../DaisySP/Source/Synthesis/oscillator.h ****         phase_inc_ = CalcPhaseInc(freq_);
  50:../../DaisySP/Source/Synthesis/oscillator.h ****         waveform_  = WAVE_SIN;
  51:../../DaisySP/Source/Synthesis/oscillator.h ****         eoc_       = true;
  52:../../DaisySP/Source/Synthesis/oscillator.h ****         eor_       = true;
  53:../../DaisySP/Source/Synthesis/oscillator.h ****     }
  54:../../DaisySP/Source/Synthesis/oscillator.h **** 
  55:../../DaisySP/Source/Synthesis/oscillator.h **** 
  56:../../DaisySP/Source/Synthesis/oscillator.h ****     /** Changes the frequency of the Oscillator, and recalculates phase increment.
  57:../../DaisySP/Source/Synthesis/oscillator.h ****     */
  58:../../DaisySP/Source/Synthesis/oscillator.h ****     inline void SetFreq(const float f)
  59:../../DaisySP/Source/Synthesis/oscillator.h ****     {
  60:../../DaisySP/Source/Synthesis/oscillator.h ****         freq_      = f;
  61:../../DaisySP/Source/Synthesis/oscillator.h ****         phase_inc_ = CalcPhaseInc(f);
  62:../../DaisySP/Source/Synthesis/oscillator.h ****     }
  63:../../DaisySP/Source/Synthesis/oscillator.h **** 
  64:../../DaisySP/Source/Synthesis/oscillator.h **** 
  65:../../DaisySP/Source/Synthesis/oscillator.h ****     /** Sets the amplitude of the waveform.
  66:../../DaisySP/Source/Synthesis/oscillator.h ****     */
  67:../../DaisySP/Source/Synthesis/oscillator.h ****     inline void SetAmp(const float a) { amp_ = a; }
 298              		.loc 8 67 17 view .LVU45
 299              	.LBB171:
 300              		.loc 8 67 41 view .LVU46
 301              		.loc 8 67 46 is_stmt 0 view .LVU47
 302 0014 1A4B     		ldr	r3, .L27
 303              	.LVL14:
 304              		.loc 8 67 46 view .LVU48
 305 0016 0022     		movs	r2, #0
 306 0018 5A60     		str	r2, [r3, #4]	@ float
 307              	.LVL15:
 308              	.L20:
 309              		.loc 8 67 46 view .LVU49
 310              	.LBE171:
 311              	.LBE170:
 312              	.LBE169:
  50:DrumModule.cpp ****     } 
  51:DrumModule.cpp **** }
ARM GAS  /var/folders/0z/b9p8b05s1kb5msq549c5__rh0000gn/T//cc8CuGSI.s 			page 16


 313              		.loc 10 51 1 view .LVU50
 314 001a BDE83840 		pop	{r3, r4, r5, lr}
 315              		.cfi_remember_state
 316              		.cfi_restore 14
 317              		.cfi_restore 5
 318              		.cfi_restore 4
 319              		.cfi_restore 3
 320              		.cfi_def_cfa_offset 16
 321 001e 04B0     		add	sp, sp, #16
 322              		.cfi_def_cfa_offset 0
 323 0020 7047     		bx	lr
 324              	.LVL16:
 325              	.L26:
 326              		.cfi_restore_state
 327              	.LBB195:
 328              	.LBB172:
  43:DrumModule.cpp ****         note = noteOn.note;
 329              		.loc 10 43 9 is_stmt 1 view .LVU51
 330              	.LBB173:
 331              	.LBI173:
 332              		.file 11 "../../libdaisy/src/hid/MidiEvent.h"
   1:../../libdaisy/src/hid/MidiEvent.h **** namespace daisy
   2:../../libdaisy/src/hid/MidiEvent.h **** {
   3:../../libdaisy/src/hid/MidiEvent.h **** /** Parsed from the Status Byte, these are the common Midi Messages that can be handled. \n
   4:../../libdaisy/src/hid/MidiEvent.h **** At this time only 3-byte messages are correctly parsed into MidiEvents.
   5:../../libdaisy/src/hid/MidiEvent.h **** */
   6:../../libdaisy/src/hid/MidiEvent.h **** enum MidiMessageType
   7:../../libdaisy/src/hid/MidiEvent.h **** {
   8:../../libdaisy/src/hid/MidiEvent.h ****     NoteOff,               /**< & */
   9:../../libdaisy/src/hid/MidiEvent.h ****     NoteOn,                /**< & */
  10:../../libdaisy/src/hid/MidiEvent.h ****     PolyphonicKeyPressure, /**< & */
  11:../../libdaisy/src/hid/MidiEvent.h ****     ControlChange,         /**< & */
  12:../../libdaisy/src/hid/MidiEvent.h ****     ProgramChange,         /**< & */
  13:../../libdaisy/src/hid/MidiEvent.h ****     ChannelPressure,       /**< & */
  14:../../libdaisy/src/hid/MidiEvent.h ****     PitchBend,             /**< & */
  15:../../libdaisy/src/hid/MidiEvent.h ****     SystemCommon,          /**< & */
  16:../../libdaisy/src/hid/MidiEvent.h ****     SystemRealTime,        /**< & */
  17:../../libdaisy/src/hid/MidiEvent.h ****     ChannelMode,           /**< & */
  18:../../libdaisy/src/hid/MidiEvent.h ****     MessageLast,           /**< & */
  19:../../libdaisy/src/hid/MidiEvent.h **** };
  20:../../libdaisy/src/hid/MidiEvent.h **** 
  21:../../libdaisy/src/hid/MidiEvent.h **** enum SystemCommonType
  22:../../libdaisy/src/hid/MidiEvent.h **** {
  23:../../libdaisy/src/hid/MidiEvent.h ****     SystemExclusive,     /**< & */
  24:../../libdaisy/src/hid/MidiEvent.h ****     MTCQuarterFrame,     /**< & */
  25:../../libdaisy/src/hid/MidiEvent.h ****     SongPositionPointer, /**< & */
  26:../../libdaisy/src/hid/MidiEvent.h ****     SongSelect,          /**< & */
  27:../../libdaisy/src/hid/MidiEvent.h ****     SCUndefined0,        /**< & */
  28:../../libdaisy/src/hid/MidiEvent.h ****     SCUndefined1,        /**< & */
  29:../../libdaisy/src/hid/MidiEvent.h ****     TuneRequest,         /**< & */
  30:../../libdaisy/src/hid/MidiEvent.h ****     SysExEnd,            /**< & */
  31:../../libdaisy/src/hid/MidiEvent.h ****     SystemCommonLast,    /**< & */
  32:../../libdaisy/src/hid/MidiEvent.h **** };
  33:../../libdaisy/src/hid/MidiEvent.h **** 
  34:../../libdaisy/src/hid/MidiEvent.h **** enum SystemRealTimeType
  35:../../libdaisy/src/hid/MidiEvent.h **** {
  36:../../libdaisy/src/hid/MidiEvent.h ****     TimingClock,        /**< & */
ARM GAS  /var/folders/0z/b9p8b05s1kb5msq549c5__rh0000gn/T//cc8CuGSI.s 			page 17


  37:../../libdaisy/src/hid/MidiEvent.h ****     SRTUndefined0,      /**< & */
  38:../../libdaisy/src/hid/MidiEvent.h ****     Start,              /**< & */
  39:../../libdaisy/src/hid/MidiEvent.h ****     Continue,           /**< & */
  40:../../libdaisy/src/hid/MidiEvent.h ****     Stop,               /**< & */
  41:../../libdaisy/src/hid/MidiEvent.h ****     SRTUndefined1,      /**< & */
  42:../../libdaisy/src/hid/MidiEvent.h ****     ActiveSensing,      /**< & */
  43:../../libdaisy/src/hid/MidiEvent.h ****     Reset,              /**< & */
  44:../../libdaisy/src/hid/MidiEvent.h ****     SystemRealTimeLast, /**< & */
  45:../../libdaisy/src/hid/MidiEvent.h **** };
  46:../../libdaisy/src/hid/MidiEvent.h **** 
  47:../../libdaisy/src/hid/MidiEvent.h **** enum ChannelModeType
  48:../../libdaisy/src/hid/MidiEvent.h **** {
  49:../../libdaisy/src/hid/MidiEvent.h ****     AllSoundOff,         /**< & */
  50:../../libdaisy/src/hid/MidiEvent.h ****     ResetAllControllers, /**< & */
  51:../../libdaisy/src/hid/MidiEvent.h ****     LocalControl,        /**< & */
  52:../../libdaisy/src/hid/MidiEvent.h ****     AllNotesOff,         /**< & */
  53:../../libdaisy/src/hid/MidiEvent.h ****     OmniModeOff,         /**< & */
  54:../../libdaisy/src/hid/MidiEvent.h ****     OmniModeOn,          /**< & */
  55:../../libdaisy/src/hid/MidiEvent.h ****     MonoModeOn,          /**< & */
  56:../../libdaisy/src/hid/MidiEvent.h ****     PolyModeOn,          /**< & */
  57:../../libdaisy/src/hid/MidiEvent.h ****     ChannelModeLast,     /**< & */
  58:../../libdaisy/src/hid/MidiEvent.h **** };
  59:../../libdaisy/src/hid/MidiEvent.h **** 
  60:../../libdaisy/src/hid/MidiEvent.h **** /** Struct containing note, and velocity data for a given channel.
  61:../../libdaisy/src/hid/MidiEvent.h **** Can be made from MidiEvent
  62:../../libdaisy/src/hid/MidiEvent.h **** */
  63:../../libdaisy/src/hid/MidiEvent.h **** struct NoteOffEvent
  64:../../libdaisy/src/hid/MidiEvent.h **** {
  65:../../libdaisy/src/hid/MidiEvent.h ****     int     channel;  /**< & */
  66:../../libdaisy/src/hid/MidiEvent.h ****     uint8_t note;     /**< & */
  67:../../libdaisy/src/hid/MidiEvent.h ****     uint8_t velocity; /**< & */
  68:../../libdaisy/src/hid/MidiEvent.h **** };
  69:../../libdaisy/src/hid/MidiEvent.h **** 
  70:../../libdaisy/src/hid/MidiEvent.h **** 
  71:../../libdaisy/src/hid/MidiEvent.h **** /** Struct containing note, and velocity data for a given channel.
  72:../../libdaisy/src/hid/MidiEvent.h **** Can be made from MidiEvent
  73:../../libdaisy/src/hid/MidiEvent.h **** */
  74:../../libdaisy/src/hid/MidiEvent.h **** struct NoteOnEvent
  75:../../libdaisy/src/hid/MidiEvent.h **** {
  76:../../libdaisy/src/hid/MidiEvent.h ****     int     channel;  /**< & */
  77:../../libdaisy/src/hid/MidiEvent.h ****     uint8_t note;     /**< & */
  78:../../libdaisy/src/hid/MidiEvent.h ****     uint8_t velocity; /**< & */
  79:../../libdaisy/src/hid/MidiEvent.h **** };
  80:../../libdaisy/src/hid/MidiEvent.h **** /** Struct containing note, and pressure data for a given channel.
  81:../../libdaisy/src/hid/MidiEvent.h **** Can be made from MidiEvent
  82:../../libdaisy/src/hid/MidiEvent.h **** */
  83:../../libdaisy/src/hid/MidiEvent.h **** struct PolyphonicKeyPressureEvent
  84:../../libdaisy/src/hid/MidiEvent.h **** {
  85:../../libdaisy/src/hid/MidiEvent.h ****     int     channel;
  86:../../libdaisy/src/hid/MidiEvent.h ****     uint8_t note;
  87:../../libdaisy/src/hid/MidiEvent.h ****     uint8_t pressure;
  88:../../libdaisy/src/hid/MidiEvent.h **** };
  89:../../libdaisy/src/hid/MidiEvent.h **** /** Struct containing control number, and value for a given channel.
  90:../../libdaisy/src/hid/MidiEvent.h **** Can be made from MidiEvent
  91:../../libdaisy/src/hid/MidiEvent.h **** */
  92:../../libdaisy/src/hid/MidiEvent.h **** struct ControlChangeEvent
  93:../../libdaisy/src/hid/MidiEvent.h **** {
ARM GAS  /var/folders/0z/b9p8b05s1kb5msq549c5__rh0000gn/T//cc8CuGSI.s 			page 18


  94:../../libdaisy/src/hid/MidiEvent.h ****     int     channel;        /**< & */
  95:../../libdaisy/src/hid/MidiEvent.h ****     uint8_t control_number; /**< & */
  96:../../libdaisy/src/hid/MidiEvent.h ****     uint8_t value;          /**< & */
  97:../../libdaisy/src/hid/MidiEvent.h **** };
  98:../../libdaisy/src/hid/MidiEvent.h **** /** Struct containing new program number, for a given channel.
  99:../../libdaisy/src/hid/MidiEvent.h **** Can be made from MidiEvent
 100:../../libdaisy/src/hid/MidiEvent.h **** */
 101:../../libdaisy/src/hid/MidiEvent.h **** struct ProgramChangeEvent
 102:../../libdaisy/src/hid/MidiEvent.h **** {
 103:../../libdaisy/src/hid/MidiEvent.h ****     int     channel; /**< & */
 104:../../libdaisy/src/hid/MidiEvent.h ****     uint8_t program; /**< & */
 105:../../libdaisy/src/hid/MidiEvent.h **** };
 106:../../libdaisy/src/hid/MidiEvent.h **** /** Struct containing pressure (aftertouch), for a given channel.
 107:../../libdaisy/src/hid/MidiEvent.h **** Can be made from MidiEvent
 108:../../libdaisy/src/hid/MidiEvent.h **** */
 109:../../libdaisy/src/hid/MidiEvent.h **** struct ChannelPressureEvent
 110:../../libdaisy/src/hid/MidiEvent.h **** {
 111:../../libdaisy/src/hid/MidiEvent.h ****     int     channel;  /**< & */
 112:../../libdaisy/src/hid/MidiEvent.h ****     uint8_t pressure; /**< & */
 113:../../libdaisy/src/hid/MidiEvent.h **** };
 114:../../libdaisy/src/hid/MidiEvent.h **** /** Struct containing pitch bend value for a given channel.
 115:../../libdaisy/src/hid/MidiEvent.h **** Can be made from MidiEvent
 116:../../libdaisy/src/hid/MidiEvent.h **** */
 117:../../libdaisy/src/hid/MidiEvent.h **** struct PitchBendEvent
 118:../../libdaisy/src/hid/MidiEvent.h **** {
 119:../../libdaisy/src/hid/MidiEvent.h ****     int     channel; /**< & */
 120:../../libdaisy/src/hid/MidiEvent.h ****     int16_t value;   /**< & */
 121:../../libdaisy/src/hid/MidiEvent.h **** };
 122:../../libdaisy/src/hid/MidiEvent.h **** /** Struct containing sysex data.
 123:../../libdaisy/src/hid/MidiEvent.h **** Can be made from MidiEvent
 124:../../libdaisy/src/hid/MidiEvent.h **** */
 125:../../libdaisy/src/hid/MidiEvent.h **** struct SystemExclusiveEvent
 126:../../libdaisy/src/hid/MidiEvent.h **** {
 127:../../libdaisy/src/hid/MidiEvent.h ****     int     length;
 128:../../libdaisy/src/hid/MidiEvent.h ****     uint8_t data[SYSEX_BUFFER_LEN]; /**< & */
 129:../../libdaisy/src/hid/MidiEvent.h **** };
 130:../../libdaisy/src/hid/MidiEvent.h **** /** Struct containing QuarterFrame data.
 131:../../libdaisy/src/hid/MidiEvent.h **** Can be made from MidiEvent
 132:../../libdaisy/src/hid/MidiEvent.h **** */
 133:../../libdaisy/src/hid/MidiEvent.h **** struct MTCQuarterFrameEvent
 134:../../libdaisy/src/hid/MidiEvent.h **** {
 135:../../libdaisy/src/hid/MidiEvent.h ****     uint8_t message_type; /**< & */
 136:../../libdaisy/src/hid/MidiEvent.h ****     uint8_t value;        /**< & */
 137:../../libdaisy/src/hid/MidiEvent.h **** };
 138:../../libdaisy/src/hid/MidiEvent.h **** /** Struct containing song position data.
 139:../../libdaisy/src/hid/MidiEvent.h **** Can be made from MidiEvent
 140:../../libdaisy/src/hid/MidiEvent.h **** */
 141:../../libdaisy/src/hid/MidiEvent.h **** struct SongPositionPointerEvent
 142:../../libdaisy/src/hid/MidiEvent.h **** {
 143:../../libdaisy/src/hid/MidiEvent.h ****     uint16_t position; /**< & */
 144:../../libdaisy/src/hid/MidiEvent.h **** };
 145:../../libdaisy/src/hid/MidiEvent.h **** /** Struct containing song select data.
 146:../../libdaisy/src/hid/MidiEvent.h **** Can be made from MidiEvent
 147:../../libdaisy/src/hid/MidiEvent.h **** */
 148:../../libdaisy/src/hid/MidiEvent.h **** struct SongSelectEvent
 149:../../libdaisy/src/hid/MidiEvent.h **** {
 150:../../libdaisy/src/hid/MidiEvent.h ****     uint8_t song; /**< & */
ARM GAS  /var/folders/0z/b9p8b05s1kb5msq549c5__rh0000gn/T//cc8CuGSI.s 			page 19


 151:../../libdaisy/src/hid/MidiEvent.h **** };
 152:../../libdaisy/src/hid/MidiEvent.h **** /** Struct containing sound off data.
 153:../../libdaisy/src/hid/MidiEvent.h **** Can be made from MidiEvent
 154:../../libdaisy/src/hid/MidiEvent.h **** */
 155:../../libdaisy/src/hid/MidiEvent.h **** struct AllSoundOffEvent
 156:../../libdaisy/src/hid/MidiEvent.h **** {
 157:../../libdaisy/src/hid/MidiEvent.h ****     int channel; /**< & */
 158:../../libdaisy/src/hid/MidiEvent.h **** };
 159:../../libdaisy/src/hid/MidiEvent.h **** /** Struct containing ResetAllControllersEvent data.
 160:../../libdaisy/src/hid/MidiEvent.h **** Can be made from MidiEvent
 161:../../libdaisy/src/hid/MidiEvent.h **** */
 162:../../libdaisy/src/hid/MidiEvent.h **** struct ResetAllControllersEvent
 163:../../libdaisy/src/hid/MidiEvent.h **** {
 164:../../libdaisy/src/hid/MidiEvent.h ****     int     channel; /**< & */
 165:../../libdaisy/src/hid/MidiEvent.h ****     uint8_t value;   /**< & */
 166:../../libdaisy/src/hid/MidiEvent.h **** };
 167:../../libdaisy/src/hid/MidiEvent.h **** /** Struct containing LocalControlEvent data.
 168:../../libdaisy/src/hid/MidiEvent.h **** Can be made from MidiEvent
 169:../../libdaisy/src/hid/MidiEvent.h **** */
 170:../../libdaisy/src/hid/MidiEvent.h **** struct LocalControlEvent
 171:../../libdaisy/src/hid/MidiEvent.h **** {
 172:../../libdaisy/src/hid/MidiEvent.h ****     int  channel;           /**< & */
 173:../../libdaisy/src/hid/MidiEvent.h ****     bool local_control_off; /**< & */
 174:../../libdaisy/src/hid/MidiEvent.h ****     bool local_control_on;  /**< & */
 175:../../libdaisy/src/hid/MidiEvent.h **** };
 176:../../libdaisy/src/hid/MidiEvent.h **** /** Struct containing AllNotesOffEvent data.
 177:../../libdaisy/src/hid/MidiEvent.h **** Can be made from MidiEvent
 178:../../libdaisy/src/hid/MidiEvent.h **** */
 179:../../libdaisy/src/hid/MidiEvent.h **** struct AllNotesOffEvent
 180:../../libdaisy/src/hid/MidiEvent.h **** {
 181:../../libdaisy/src/hid/MidiEvent.h ****     int channel; /**< & */
 182:../../libdaisy/src/hid/MidiEvent.h **** };
 183:../../libdaisy/src/hid/MidiEvent.h **** /** Struct containing OmniModeOffEvent data. 
 184:../../libdaisy/src/hid/MidiEvent.h ****  * Can be made from MidiEvent
 185:../../libdaisy/src/hid/MidiEvent.h **** */
 186:../../libdaisy/src/hid/MidiEvent.h **** struct OmniModeOffEvent
 187:../../libdaisy/src/hid/MidiEvent.h **** {
 188:../../libdaisy/src/hid/MidiEvent.h ****     int channel; /**< & */
 189:../../libdaisy/src/hid/MidiEvent.h **** };
 190:../../libdaisy/src/hid/MidiEvent.h **** /** Struct containing OmniModeOnEvent data.
 191:../../libdaisy/src/hid/MidiEvent.h **** Can be made from MidiEvent
 192:../../libdaisy/src/hid/MidiEvent.h **** */
 193:../../libdaisy/src/hid/MidiEvent.h **** struct OmniModeOnEvent
 194:../../libdaisy/src/hid/MidiEvent.h **** {
 195:../../libdaisy/src/hid/MidiEvent.h ****     int channel; /**< & */
 196:../../libdaisy/src/hid/MidiEvent.h **** };
 197:../../libdaisy/src/hid/MidiEvent.h **** /** Struct containing MonoModeOnEvent data.
 198:../../libdaisy/src/hid/MidiEvent.h **** Can be made from MidiEvent
 199:../../libdaisy/src/hid/MidiEvent.h **** */
 200:../../libdaisy/src/hid/MidiEvent.h **** struct MonoModeOnEvent
 201:../../libdaisy/src/hid/MidiEvent.h **** {
 202:../../libdaisy/src/hid/MidiEvent.h ****     int     channel;      /**< & */
 203:../../libdaisy/src/hid/MidiEvent.h ****     uint8_t num_channels; /**< & */
 204:../../libdaisy/src/hid/MidiEvent.h **** };
 205:../../libdaisy/src/hid/MidiEvent.h **** /** Struct containing PolyModeOnEvent data.
 206:../../libdaisy/src/hid/MidiEvent.h **** Can be made from MidiEvent
 207:../../libdaisy/src/hid/MidiEvent.h **** */
ARM GAS  /var/folders/0z/b9p8b05s1kb5msq549c5__rh0000gn/T//cc8CuGSI.s 			page 20


 208:../../libdaisy/src/hid/MidiEvent.h **** struct PolyModeOnEvent
 209:../../libdaisy/src/hid/MidiEvent.h **** {
 210:../../libdaisy/src/hid/MidiEvent.h ****     int channel; /**< & */
 211:../../libdaisy/src/hid/MidiEvent.h **** };
 212:../../libdaisy/src/hid/MidiEvent.h **** 
 213:../../libdaisy/src/hid/MidiEvent.h **** 
 214:../../libdaisy/src/hid/MidiEvent.h **** /** Simple MidiEvent with message type, channel, and data[2] members.
 215:../../libdaisy/src/hid/MidiEvent.h **** */
 216:../../libdaisy/src/hid/MidiEvent.h **** struct MidiEvent
 217:../../libdaisy/src/hid/MidiEvent.h **** {
 218:../../libdaisy/src/hid/MidiEvent.h ****     // Newer ish.
 219:../../libdaisy/src/hid/MidiEvent.h ****     MidiMessageType    type;                         /**< & */
 220:../../libdaisy/src/hid/MidiEvent.h ****     int                channel;                      /**< & */
 221:../../libdaisy/src/hid/MidiEvent.h ****     uint8_t            data[2];                      /**< & */
 222:../../libdaisy/src/hid/MidiEvent.h ****     uint8_t            sysex_data[SYSEX_BUFFER_LEN]; /**< & */
 223:../../libdaisy/src/hid/MidiEvent.h ****     uint8_t            sysex_message_len;
 224:../../libdaisy/src/hid/MidiEvent.h ****     SystemCommonType   sc_type;
 225:../../libdaisy/src/hid/MidiEvent.h ****     SystemRealTimeType srt_type;
 226:../../libdaisy/src/hid/MidiEvent.h ****     ChannelModeType    cm_type;
 227:../../libdaisy/src/hid/MidiEvent.h **** 
 228:../../libdaisy/src/hid/MidiEvent.h ****     /** Returns the data within the MidiEvent as a NoteOffEvent struct */
 229:../../libdaisy/src/hid/MidiEvent.h ****     NoteOffEvent AsNoteOff()
 230:../../libdaisy/src/hid/MidiEvent.h ****     {
 231:../../libdaisy/src/hid/MidiEvent.h ****         NoteOffEvent m;
 232:../../libdaisy/src/hid/MidiEvent.h ****         m.channel  = channel;
 233:../../libdaisy/src/hid/MidiEvent.h ****         m.note     = data[0];
 234:../../libdaisy/src/hid/MidiEvent.h ****         m.velocity = data[1];
 235:../../libdaisy/src/hid/MidiEvent.h ****         return m;
 236:../../libdaisy/src/hid/MidiEvent.h ****     }
 237:../../libdaisy/src/hid/MidiEvent.h **** 
 238:../../libdaisy/src/hid/MidiEvent.h ****     /** Returns the data within the MidiEvent as a NoteOnEvent struct */
 239:../../libdaisy/src/hid/MidiEvent.h ****     NoteOnEvent AsNoteOn()
 333              		.loc 11 239 17 view .LVU52
 334              	.LBB174:
 240:../../libdaisy/src/hid/MidiEvent.h ****     {
 241:../../libdaisy/src/hid/MidiEvent.h ****         NoteOnEvent m;
 335              		.loc 11 241 9 view .LVU53
 242:../../libdaisy/src/hid/MidiEvent.h ****         m.channel  = channel;
 336              		.loc 11 242 9 view .LVU54
 243:../../libdaisy/src/hid/MidiEvent.h ****         m.note     = data[0];
 337              		.loc 11 243 9 view .LVU55
 244:../../libdaisy/src/hid/MidiEvent.h ****         m.velocity = data[1];
 338              		.loc 11 244 9 view .LVU56
 339              	.LBE174:
 340              	.LBE173:
  44:DrumModule.cpp ****         osc.SetFreq(mtof(note));
 341              		.loc 10 44 23 is_stmt 0 view .LVU57
 342 0022 9DF81830 		ldrb	r3, [sp, #24]	@ zero_extendqisi2
 343              	.LVL17:
 344              	.LBB176:
 345              	.LBB177:
 346              		.file 12 "../../DaisySP/Source/Utility/dsp.h"
   1:../../DaisySP/Source/Utility/dsp.h **** /** Helpful defines, functions, and other utilities for use in/with daisysp modules.
   2:../../DaisySP/Source/Utility/dsp.h **** */
   3:../../DaisySP/Source/Utility/dsp.h **** #pragma once
   4:../../DaisySP/Source/Utility/dsp.h **** #ifndef DSY_CORE_DSP
   5:../../DaisySP/Source/Utility/dsp.h **** #define DSY_CORE_DSP
ARM GAS  /var/folders/0z/b9p8b05s1kb5msq549c5__rh0000gn/T//cc8CuGSI.s 			page 21


   6:../../DaisySP/Source/Utility/dsp.h **** #include <cassert>
   7:../../DaisySP/Source/Utility/dsp.h **** #include <cstdint>
   8:../../DaisySP/Source/Utility/dsp.h **** #include <random>
   9:../../DaisySP/Source/Utility/dsp.h **** #include <cmath>
  10:../../DaisySP/Source/Utility/dsp.h **** 
  11:../../DaisySP/Source/Utility/dsp.h **** /** PIs
  12:../../DaisySP/Source/Utility/dsp.h **** */
  13:../../DaisySP/Source/Utility/dsp.h **** #define PI_F 3.1415927410125732421875f
  14:../../DaisySP/Source/Utility/dsp.h **** #define TWOPI_F (2.0f * PI_F)
  15:../../DaisySP/Source/Utility/dsp.h **** #define HALFPI_F (PI_F * 0.5f)
  16:../../DaisySP/Source/Utility/dsp.h **** #define DSY_MIN(in, mn) (in < mn ? in : mn)
  17:../../DaisySP/Source/Utility/dsp.h **** #define DSY_MAX(in, mx) (in > mx ? in : mx)
  18:../../DaisySP/Source/Utility/dsp.h **** #define DSY_CLAMP(in, mn, mx) (DSY_MIN(DSY_MAX(in, mn), mx))
  19:../../DaisySP/Source/Utility/dsp.h **** #define DSY_COUNTOF(_arr) (sizeof(_arr) / sizeof(_arr[0]))
  20:../../DaisySP/Source/Utility/dsp.h **** 
  21:../../DaisySP/Source/Utility/dsp.h **** namespace daisysp
  22:../../DaisySP/Source/Utility/dsp.h **** {
  23:../../DaisySP/Source/Utility/dsp.h **** //Avoids division for random floats. e.g. rand() * kRandFrac
  24:../../DaisySP/Source/Utility/dsp.h **** static constexpr float kRandFrac = 1.f / (float)RAND_MAX;
  25:../../DaisySP/Source/Utility/dsp.h **** 
  26:../../DaisySP/Source/Utility/dsp.h **** //Convert from semitones to other units. e.g. 2 ^ (kOneTwelfth * x)
  27:../../DaisySP/Source/Utility/dsp.h **** static constexpr float kOneTwelfth = 1.f / 12.f;
  28:../../DaisySP/Source/Utility/dsp.h **** 
  29:../../DaisySP/Source/Utility/dsp.h **** /** efficient floating point min/max
  30:../../DaisySP/Source/Utility/dsp.h **** c/o stephen mccaul
  31:../../DaisySP/Source/Utility/dsp.h **** */
  32:../../DaisySP/Source/Utility/dsp.h **** inline float fmax(float a, float b)
  33:../../DaisySP/Source/Utility/dsp.h **** {
  34:../../DaisySP/Source/Utility/dsp.h ****     float r;
  35:../../DaisySP/Source/Utility/dsp.h **** #ifdef __arm__
  36:../../DaisySP/Source/Utility/dsp.h ****     asm("vmaxnm.f32 %[d], %[n], %[m]" : [d] "=t"(r) : [n] "t"(a), [m] "t"(b) :);
  37:../../DaisySP/Source/Utility/dsp.h **** #else
  38:../../DaisySP/Source/Utility/dsp.h ****     r = (a > b) ? a : b;
  39:../../DaisySP/Source/Utility/dsp.h **** #endif // __arm__
  40:../../DaisySP/Source/Utility/dsp.h ****     return r;
  41:../../DaisySP/Source/Utility/dsp.h **** }
  42:../../DaisySP/Source/Utility/dsp.h **** 
  43:../../DaisySP/Source/Utility/dsp.h **** inline float fmin(float a, float b)
  44:../../DaisySP/Source/Utility/dsp.h **** {
  45:../../DaisySP/Source/Utility/dsp.h ****     float r;
  46:../../DaisySP/Source/Utility/dsp.h **** #ifdef __arm__
  47:../../DaisySP/Source/Utility/dsp.h ****     asm("vminnm.f32 %[d], %[n], %[m]" : [d] "=t"(r) : [n] "t"(a), [m] "t"(b) :);
  48:../../DaisySP/Source/Utility/dsp.h **** #else
  49:../../DaisySP/Source/Utility/dsp.h ****     r = (a < b) ? a : b;
  50:../../DaisySP/Source/Utility/dsp.h **** #endif // __arm__
  51:../../DaisySP/Source/Utility/dsp.h ****     return r;
  52:../../DaisySP/Source/Utility/dsp.h **** }
  53:../../DaisySP/Source/Utility/dsp.h **** 
  54:../../DaisySP/Source/Utility/dsp.h **** /** quick fp clamp
  55:../../DaisySP/Source/Utility/dsp.h **** */
  56:../../DaisySP/Source/Utility/dsp.h **** inline float fclamp(float in, float min, float max)
  57:../../DaisySP/Source/Utility/dsp.h **** {
  58:../../DaisySP/Source/Utility/dsp.h ****     return fmin(fmax(in, min), max);
  59:../../DaisySP/Source/Utility/dsp.h **** }
  60:../../DaisySP/Source/Utility/dsp.h **** 
  61:../../DaisySP/Source/Utility/dsp.h **** /** From Musicdsp.org "Fast power and root estimates for 32bit floats)
  62:../../DaisySP/Source/Utility/dsp.h **** Original code by Stefan Stenzel
ARM GAS  /var/folders/0z/b9p8b05s1kb5msq549c5__rh0000gn/T//cc8CuGSI.s 			page 22


  63:../../DaisySP/Source/Utility/dsp.h **** These are approximations
  64:../../DaisySP/Source/Utility/dsp.h **** */
  65:../../DaisySP/Source/Utility/dsp.h **** inline float fastpower(float f, int n)
  66:../../DaisySP/Source/Utility/dsp.h **** {
  67:../../DaisySP/Source/Utility/dsp.h ****     long *lp, l;
  68:../../DaisySP/Source/Utility/dsp.h ****     lp = (long *)(&f);
  69:../../DaisySP/Source/Utility/dsp.h ****     l  = *lp;
  70:../../DaisySP/Source/Utility/dsp.h ****     l -= 0x3F800000;
  71:../../DaisySP/Source/Utility/dsp.h ****     l <<= (n - 1);
  72:../../DaisySP/Source/Utility/dsp.h ****     l += 0x3F800000;
  73:../../DaisySP/Source/Utility/dsp.h ****     *lp = l;
  74:../../DaisySP/Source/Utility/dsp.h ****     return f;
  75:../../DaisySP/Source/Utility/dsp.h **** }
  76:../../DaisySP/Source/Utility/dsp.h **** 
  77:../../DaisySP/Source/Utility/dsp.h **** inline float fastroot(float f, int n)
  78:../../DaisySP/Source/Utility/dsp.h **** {
  79:../../DaisySP/Source/Utility/dsp.h ****     long *lp, l;
  80:../../DaisySP/Source/Utility/dsp.h ****     lp = (long *)(&f);
  81:../../DaisySP/Source/Utility/dsp.h ****     l  = *lp;
  82:../../DaisySP/Source/Utility/dsp.h ****     l -= 0x3F800000;
  83:../../DaisySP/Source/Utility/dsp.h ****     l >>= (n = 1);
  84:../../DaisySP/Source/Utility/dsp.h ****     l += 0x3F800000;
  85:../../DaisySP/Source/Utility/dsp.h ****     *lp = l;
  86:../../DaisySP/Source/Utility/dsp.h ****     return f;
  87:../../DaisySP/Source/Utility/dsp.h **** }
  88:../../DaisySP/Source/Utility/dsp.h **** 
  89:../../DaisySP/Source/Utility/dsp.h **** /** From http://openaudio.blogspot.com/2017/02/faster-log10-and-pow.html
  90:../../DaisySP/Source/Utility/dsp.h **** No approximation, pow10f(x) gives a 90% speed increase over powf(10.f, x)
  91:../../DaisySP/Source/Utility/dsp.h **** */
  92:../../DaisySP/Source/Utility/dsp.h **** inline float pow10f(float f)
  93:../../DaisySP/Source/Utility/dsp.h **** {
  94:../../DaisySP/Source/Utility/dsp.h ****     return expf(2.302585092994046f * f);
  95:../../DaisySP/Source/Utility/dsp.h **** }
  96:../../DaisySP/Source/Utility/dsp.h **** 
  97:../../DaisySP/Source/Utility/dsp.h **** /* Original code for fastlog2f by Dr. Paul Beckmann from the ARM community forum, adapted from the 
  98:../../DaisySP/Source/Utility/dsp.h **** About 25% performance increase over std::log10f
  99:../../DaisySP/Source/Utility/dsp.h **** */
 100:../../DaisySP/Source/Utility/dsp.h **** inline float fastlog2f(float f)
 101:../../DaisySP/Source/Utility/dsp.h **** {
 102:../../DaisySP/Source/Utility/dsp.h ****     float frac;
 103:../../DaisySP/Source/Utility/dsp.h ****     int   exp;
 104:../../DaisySP/Source/Utility/dsp.h ****     frac = frexpf(fabsf(f), &exp);
 105:../../DaisySP/Source/Utility/dsp.h ****     f    = 1.23149591368684f;
 106:../../DaisySP/Source/Utility/dsp.h ****     f *= frac;
 107:../../DaisySP/Source/Utility/dsp.h ****     f += -4.11852516267426f;
 108:../../DaisySP/Source/Utility/dsp.h ****     f *= frac;
 109:../../DaisySP/Source/Utility/dsp.h ****     f += 6.02197014179219f;
 110:../../DaisySP/Source/Utility/dsp.h ****     f *= frac;
 111:../../DaisySP/Source/Utility/dsp.h ****     f += -3.13396450166353f;
 112:../../DaisySP/Source/Utility/dsp.h ****     f += exp;
 113:../../DaisySP/Source/Utility/dsp.h ****     return (f);
 114:../../DaisySP/Source/Utility/dsp.h **** }
 115:../../DaisySP/Source/Utility/dsp.h **** 
 116:../../DaisySP/Source/Utility/dsp.h **** inline float fastlog10f(float f)
 117:../../DaisySP/Source/Utility/dsp.h **** {
 118:../../DaisySP/Source/Utility/dsp.h ****     return fastlog2f(f) * 0.3010299956639812f;
 119:../../DaisySP/Source/Utility/dsp.h **** }
ARM GAS  /var/folders/0z/b9p8b05s1kb5msq549c5__rh0000gn/T//cc8CuGSI.s 			page 23


 120:../../DaisySP/Source/Utility/dsp.h **** 
 121:../../DaisySP/Source/Utility/dsp.h **** /** Midi to frequency helper
 122:../../DaisySP/Source/Utility/dsp.h **** */
 123:../../DaisySP/Source/Utility/dsp.h **** inline float mtof(float m)
 124:../../DaisySP/Source/Utility/dsp.h **** {
 125:../../DaisySP/Source/Utility/dsp.h ****     return powf(2, (m - 69.0f) / 12.0f) * 440.0f;
 347              		.loc 12 125 16 view .LVU58
 348 0026 F2EE080A 		vmov.f32	s1, #1.2e+1
 349              		.loc 12 125 23 view .LVU59
 350 002a 9FED167A 		vldr.32	s14, .L27+4
 351              		.loc 12 125 16 view .LVU60
 352 002e B0EE000A 		vmov.f32	s0, #2.0e+0
 353              	.LBE177:
 354              	.LBE176:
  45:DrumModule.cpp ****         osc.SetAmp(noteOn.velocity > 0);
 355              		.loc 10 45 20 view .LVU61
 356 0032 07EE903A 		vmov	s15, r3	@ int
  44:DrumModule.cpp ****         osc.SetFreq(mtof(note));
 357              		.loc 10 44 14 view .LVU62
 358 0036 144A     		ldr	r2, .L27+8
 359              	.LBB181:
 360              	.LBB175:
 361              		.loc 11 244 28 view .LVU63
 362 0038 9DF81950 		ldrb	r5, [sp, #25]	@ zero_extendqisi2
 363              	.LVL18:
 245:../../libdaisy/src/hid/MidiEvent.h ****         return m;
 364              		.loc 11 245 9 is_stmt 1 view .LVU64
 365              		.loc 11 245 9 is_stmt 0 view .LVU65
 366              	.LBE175:
 367              	.LBE181:
  44:DrumModule.cpp ****         osc.SetFreq(mtof(note));
 368              		.loc 10 44 9 is_stmt 1 view .LVU66
  45:DrumModule.cpp ****         osc.SetAmp(noteOn.velocity > 0);
 369              		.loc 10 45 20 is_stmt 0 view .LVU67
 370 003c F8EEE77A 		vcvt.f32.s32	s15, s15
  44:DrumModule.cpp ****         osc.SetFreq(mtof(note));
 371              		.loc 10 44 14 view .LVU68
 372 0040 1360     		str	r3, [r2]
  45:DrumModule.cpp ****         osc.SetAmp(noteOn.velocity > 0);
 373              		.loc 10 45 9 is_stmt 1 view .LVU69
 374              	.LVL19:
 375              	.LBB182:
 376              	.LBI176:
 123:../../DaisySP/Source/Utility/dsp.h **** {
 377              		.loc 12 123 14 view .LVU70
 378              	.LBB178:
 379              		.loc 12 125 5 view .LVU71
 380              	.LBE178:
 381              	.LBE182:
 382              	.LBB183:
 383              	.LBB184:
  60:../../DaisySP/Source/Synthesis/oscillator.h ****         phase_inc_ = CalcPhaseInc(f);
 384              		.loc 8 60 20 is_stmt 0 view .LVU72
 385 0042 0F4C     		ldr	r4, .L27
 386              	.LBE184:
 387              	.LBE183:
 388              	.LBB188:
ARM GAS  /var/folders/0z/b9p8b05s1kb5msq549c5__rh0000gn/T//cc8CuGSI.s 			page 24


 389              	.LBB179:
 390              		.loc 12 125 23 view .LVU73
 391 0044 77EEC77A 		vsub.f32	s15, s15, s14
 392              		.loc 12 125 16 view .LVU74
 393 0048 C7EEA00A 		vdiv.f32	s1, s15, s1
 394 004c FFF7FEFF 		bl	powf
 395              	.LVL20:
 396              		.loc 12 125 43 view .LVU75
 397 0050 DFED0E7A 		vldr.32	s15, .L27+12
 398              	.LBE179:
 399              	.LBE188:
 400              	.LBB189:
 401              	.LBB185:
  61:../../DaisySP/Source/Synthesis/oscillator.h ****     }
 402              		.loc 8 61 34 view .LVU76
 403 0054 2046     		mov	r0, r4
 404              	.LBE185:
 405              	.LBE189:
 406              	.LBB190:
 407              	.LBB180:
 408              		.loc 12 125 43 view .LVU77
 409 0056 20EE270A 		vmul.f32	s0, s0, s15
 410              	.LVL21:
 411              		.loc 12 125 43 view .LVU78
 412              	.LBE180:
 413              	.LBE190:
 414              	.LBB191:
 415              	.LBI183:
  58:../../DaisySP/Source/Synthesis/oscillator.h ****     {
 416              		.loc 8 58 17 is_stmt 1 view .LVU79
 417              	.LBB186:
  60:../../DaisySP/Source/Synthesis/oscillator.h ****         phase_inc_ = CalcPhaseInc(f);
 418              		.loc 8 60 9 view .LVU80
  60:../../DaisySP/Source/Synthesis/oscillator.h ****         phase_inc_ = CalcPhaseInc(f);
 419              		.loc 8 60 20 is_stmt 0 view .LVU81
 420 005a 84ED020A 		vstr.32	s0, [r4, #8]
  61:../../DaisySP/Source/Synthesis/oscillator.h ****     }
 421              		.loc 8 61 9 is_stmt 1 view .LVU82
  61:../../DaisySP/Source/Synthesis/oscillator.h ****     }
 422              		.loc 8 61 34 is_stmt 0 view .LVU83
 423 005e FFF7FEFF 		bl	_ZN7daisysp10Oscillator12CalcPhaseIncEf
 424              	.LVL22:
  61:../../DaisySP/Source/Synthesis/oscillator.h ****     }
 425              		.loc 8 61 34 view .LVU84
 426              	.LBE186:
 427              	.LBE191:
  46:DrumModule.cpp ****     }
 428              		.loc 10 46 19 view .LVU85
 429 0062 F7EE007A 		vmov.f32	s15, #1.0e+0
 430 0066 002D     		cmp	r5, #0
 431 0068 9FED097A 		vldr.32	s14, .L27+16
 432              	.LBB192:
 433              	.LBB187:
  61:../../DaisySP/Source/Synthesis/oscillator.h ****     }
 434              		.loc 8 61 20 view .LVU86
 435 006c 84ED060A 		vstr.32	s0, [r4, #24]
 436              	.LVL23:
ARM GAS  /var/folders/0z/b9p8b05s1kb5msq549c5__rh0000gn/T//cc8CuGSI.s 			page 25


  61:../../DaisySP/Source/Synthesis/oscillator.h ****     }
 437              		.loc 8 61 20 view .LVU87
 438              	.LBE187:
 439              	.LBE192:
  46:DrumModule.cpp ****     }
 440              		.loc 10 46 9 is_stmt 1 view .LVU88
  46:DrumModule.cpp ****     }
 441              		.loc 10 46 19 is_stmt 0 view .LVU89
 442 0070 47FE277A 		vseleq.f32	s15, s14, s15
 443              	.LVL24:
 444              	.LBB193:
 445              	.LBI193:
 446              		.loc 8 67 17 is_stmt 1 view .LVU90
 447              	.LBB194:
 448              		.loc 8 67 41 view .LVU91
 449              		.loc 8 67 46 is_stmt 0 view .LVU92
 450 0074 C4ED017A 		vstr.32	s15, [r4, #4]
 451              	.LVL25:
 452              		.loc 8 67 46 view .LVU93
 453              	.LBE194:
 454              	.LBE193:
 455              	.LBE172:
 456              	.LBE195:
 457              		.loc 10 51 1 view .LVU94
 458 0078 BDE83840 		pop	{r3, r4, r5, lr}
 459              		.cfi_restore 14
 460              		.cfi_restore 5
 461              		.cfi_restore 4
 462              		.cfi_restore 3
 463              		.cfi_def_cfa_offset 16
 464              	.LVL26:
 465              		.loc 10 51 1 view .LVU95
 466 007c 04B0     		add	sp, sp, #16
 467              		.cfi_def_cfa_offset 0
 468 007e 7047     		bx	lr
 469              	.L28:
 470              		.align	2
 471              	.L27:
 472 0080 00000000 		.word	.LANCHOR0
 473 0084 00008A42 		.word	1116340224
 474 0088 00000000 		.word	.LANCHOR1
 475 008c 0000DC43 		.word	1138491392
 476 0090 00000000 		.word	0
 477              		.cfi_endproc
 478              	.LFE4242:
 480              		.section	.text._Z8InitMidiv,"ax",%progbits
 481              		.align	1
 482              		.p2align 2,,3
 483              		.global	_Z8InitMidiv
 484              		.syntax unified
 485              		.thumb
 486              		.thumb_func
 487              		.fpu fpv5-d16
 489              	_Z8InitMidiv:
 490              	.LFB4243:
  52:DrumModule.cpp **** 
  53:DrumModule.cpp **** void InitMidi()
ARM GAS  /var/folders/0z/b9p8b05s1kb5msq549c5__rh0000gn/T//cc8CuGSI.s 			page 26


  54:DrumModule.cpp **** {
 491              		.loc 10 54 1 is_stmt 1 view -0
 492              		.cfi_startproc
 493              		@ args = 0, pretend = 0, frame = 32
 494              		@ frame_needed = 0, uses_anonymous_args = 0
  55:DrumModule.cpp ****     MidiUartHandler::Config midi_config;
 495              		.loc 10 55 5 view .LVU97
 496              	.LVL27:
 497              	.LBB206:
 498              	.LBI206:
  84:../../libdaisy/src/hid/midi.h **** 
  85:../../libdaisy/src/hid/midi.h ****     struct Config
 499              		.loc 9 85 12 view .LVU98
 500              	.LBB207:
 501              	.LBI207:
  33:../../libdaisy/src/hid/midi.h ****         {
 502              		.loc 9 33 9 view .LVU99
 503              	.LBE207:
 504              	.LBE206:
  35:../../libdaisy/src/hid/midi.h ****             rx     = {DSY_GPIOB, 7};
 505              		.loc 9 35 13 view .LVU100
  36:../../libdaisy/src/hid/midi.h ****             tx     = {DSY_GPIOB, 6};
 506              		.loc 9 36 13 view .LVU101
  37:../../libdaisy/src/hid/midi.h ****         }
 507              		.loc 9 37 13 view .LVU102
  56:DrumModule.cpp ****     midi.Init(midi_config);
 508              		.loc 10 56 5 view .LVU103
 509              	.LBB208:
 510              	.LBI208:
  86:../../libdaisy/src/hid/midi.h ****     {
  87:../../libdaisy/src/hid/midi.h ****         typename Transport::Config transport_config;
  88:../../libdaisy/src/hid/midi.h ****     };
  89:../../libdaisy/src/hid/midi.h **** 
  90:../../libdaisy/src/hid/midi.h ****     /** Initializes the MidiHandler 
  91:../../libdaisy/src/hid/midi.h ****     \param in_mode Input mode
  92:../../libdaisy/src/hid/midi.h ****     \param out_mode Output mode
  93:../../libdaisy/src/hid/midi.h ****      */
  94:../../libdaisy/src/hid/midi.h ****     void Init(Config config)
 511              		.loc 9 94 10 view .LVU104
 512              	.LBE208:
  54:DrumModule.cpp ****     MidiUartHandler::Config midi_config;
 513              		.loc 10 54 1 is_stmt 0 view .LVU105
 514 0000 70B5     		push	{r4, r5, r6, lr}
 515              		.cfi_def_cfa_offset 16
 516              		.cfi_offset 4, -16
 517              		.cfi_offset 5, -12
 518              		.cfi_offset 6, -8
 519              		.cfi_offset 14, -4
 520              	.LBB222:
 521              	.LBB209:
  95:../../libdaisy/src/hid/midi.h ****     {
  96:../../libdaisy/src/hid/midi.h ****         config_ = config;
 522              		.loc 9 96 9 view .LVU106
 523 0002 124E     		ldr	r6, .L31
 524              	.LBE209:
 525              	.LBE222:
  54:DrumModule.cpp ****     MidiUartHandler::Config midi_config;
ARM GAS  /var/folders/0z/b9p8b05s1kb5msq549c5__rh0000gn/T//cc8CuGSI.s 			page 27


 526              		.loc 10 54 1 view .LVU107
 527 0004 88B0     		sub	sp, sp, #32
 528              		.cfi_def_cfa_offset 48
 529              	.LBB223:
 530              	.LBB221:
 531              		.loc 9 96 9 view .LVU108
 532 0006 0024     		movs	r4, #0
 533              	.LBB210:
 534              	.LBB211:
  47:../../libdaisy/src/hid/midi.h ****         uart_config.parity     = UartHandler::Config::Parity::NONE;
 535              		.loc 9 47 32 view .LVU109
 536 0008 0123     		movs	r3, #1
 537              	.LBE211:
 538              	.LBE210:
 539              		.loc 9 96 9 view .LVU110
 540 000a 06F51045 		add	r5, r6, #36864
 541 000e 104A     		ldr	r2, .L31+4
 542              	.LBB214:
 543              	.LBB212:
  50:../../libdaisy/src/hid/midi.h **** 
 544              		.loc 9 50 32 view .LVU111
 545 0010 0693     		str	r3, [sp, #24]
  57:../../libdaisy/src/hid/midi.h ****     }
 546              		.loc 9 57 19 view .LVU112
 547 0012 01A9     		add	r1, sp, #4
 548 0014 05F1B000 		add	r0, r5, #176
  48:../../libdaisy/src/hid/midi.h ****         uart_config.mode       = UartHandler::Config::Mode::TX_RX;
 549              		.loc 9 48 32 view .LVU113
 550 0018 0494     		str	r4, [sp, #16]
  47:../../libdaisy/src/hid/midi.h ****         uart_config.parity     = UartHandler::Config::Parity::NONE;
 551              		.loc 9 47 32 view .LVU114
 552 001a CDE90243 		strd	r4, r3, [sp, #8]
 553              	.LBE212:
 554              	.LBE214:
 555              		.loc 9 96 9 view .LVU115
 556 001e C5E92A42 		strd	r4, r2, [r5, #168]
 557              	.LVL28:
 558              	.LBB215:
 559              	.LBI210:
  41:../../libdaisy/src/hid/midi.h ****     {
 560              		.loc 9 41 17 is_stmt 1 view .LVU116
 561              	.LBB213:
  43:../../libdaisy/src/hid/midi.h **** 
 562              		.loc 9 43 9 view .LVU117
  46:../../libdaisy/src/hid/midi.h ****         uart_config.stopbits   = UartHandler::Config::StopBits::BITS_1;
 563              		.loc 9 46 9 view .LVU118
  47:../../libdaisy/src/hid/midi.h ****         uart_config.parity     = UartHandler::Config::Parity::NONE;
 564              		.loc 9 47 9 view .LVU119
  48:../../libdaisy/src/hid/midi.h ****         uart_config.mode       = UartHandler::Config::Mode::TX_RX;
 565              		.loc 9 48 9 view .LVU120
  49:../../libdaisy/src/hid/midi.h ****         uart_config.wordlength = UartHandler::Config::WordLength::BITS_8;
 566              		.loc 9 49 9 view .LVU121
  50:../../libdaisy/src/hid/midi.h **** 
 567              		.loc 9 50 9 view .LVU122
  53:../../libdaisy/src/hid/midi.h ****         uart_config.pin_config.rx = config.rx;
 568              		.loc 9 53 9 view .LVU123
  54:../../libdaisy/src/hid/midi.h ****         uart_config.pin_config.tx = config.tx;
ARM GAS  /var/folders/0z/b9p8b05s1kb5msq549c5__rh0000gn/T//cc8CuGSI.s 			page 28


 569              		.loc 9 54 9 view .LVU124
  55:../../libdaisy/src/hid/midi.h **** 
 570              		.loc 9 55 9 view .LVU125
  46:../../libdaisy/src/hid/midi.h ****         uart_config.stopbits   = UartHandler::Config::StopBits::BITS_1;
 571              		.loc 9 46 32 is_stmt 0 view .LVU126
 572 0022 47F61223 		movw	r3, #31250
  55:../../libdaisy/src/hid/midi.h **** 
 573              		.loc 9 55 35 view .LVU127
 574 0026 02F57F02 		add	r2, r2, #16711680
  46:../../libdaisy/src/hid/midi.h ****         uart_config.stopbits   = UartHandler::Config::StopBits::BITS_1;
 575              		.loc 9 46 32 view .LVU128
 576 002a 0793     		str	r3, [sp, #28]
  57:../../libdaisy/src/hid/midi.h ****     }
 577              		.loc 9 57 9 is_stmt 1 view .LVU129
  55:../../libdaisy/src/hid/midi.h **** 
 578              		.loc 9 55 35 is_stmt 0 view .LVU130
 579 002c 02F57F42 		add	r2, r2, #65280
  49:../../libdaisy/src/hid/midi.h ****         uart_config.wordlength = UartHandler::Config::WordLength::BITS_8;
 580              		.loc 9 49 32 view .LVU131
 581 0030 0223     		movs	r3, #2
  55:../../libdaisy/src/hid/midi.h **** 
 582              		.loc 9 55 35 view .LVU132
 583 0032 0192     		str	r2, [sp, #4]
  49:../../libdaisy/src/hid/midi.h ****         uart_config.wordlength = UartHandler::Config::WordLength::BITS_8;
 584              		.loc 9 49 32 view .LVU133
 585 0034 0593     		str	r3, [sp, #20]
  57:../../libdaisy/src/hid/midi.h ****     }
 586              		.loc 9 57 19 view .LVU134
 587 0036 FFF7FEFF 		bl	_ZN5daisy11UartHandler4InitERKNS0_6ConfigE
 588              	.LVL29:
  57:../../libdaisy/src/hid/midi.h ****     }
 589              		.loc 9 57 19 view .LVU135
 590              	.LBE213:
 591              	.LBE215:
 592              	.LBB216:
 593              	.LBI216:
 594              		.file 13 "../../libdaisy/src/util/ringbuffer.h"
   1:../../libdaisy/src/util/ringbuffer.h **** #pragma once
   2:../../libdaisy/src/util/ringbuffer.h **** #ifndef DSY_RINGBUFFER_H
   3:../../libdaisy/src/util/ringbuffer.h **** #define DSY_RINGBUFFER_H
   4:../../libdaisy/src/util/ringbuffer.h **** 
   5:../../libdaisy/src/util/ringbuffer.h **** #include <algorithm>
   6:../../libdaisy/src/util/ringbuffer.h **** 
   7:../../libdaisy/src/util/ringbuffer.h **** namespace daisy
   8:../../libdaisy/src/util/ringbuffer.h **** {
   9:../../libdaisy/src/util/ringbuffer.h **** /** @addtogroup utility
  10:../../libdaisy/src/util/ringbuffer.h ****     @{
  11:../../libdaisy/src/util/ringbuffer.h **** */
  12:../../libdaisy/src/util/ringbuffer.h **** 
  13:../../libdaisy/src/util/ringbuffer.h **** /**
  14:../../libdaisy/src/util/ringbuffer.h **** Utility Ring Buffer \n 
  15:../../libdaisy/src/util/ringbuffer.h **** imported from pichenettes/stmlib
  16:../../libdaisy/src/util/ringbuffer.h **** */
  17:../../libdaisy/src/util/ringbuffer.h **** template <typename T, size_t size>
  18:../../libdaisy/src/util/ringbuffer.h **** class RingBuffer
  19:../../libdaisy/src/util/ringbuffer.h **** {
  20:../../libdaisy/src/util/ringbuffer.h ****   public:
ARM GAS  /var/folders/0z/b9p8b05s1kb5msq549c5__rh0000gn/T//cc8CuGSI.s 			page 29


  21:../../libdaisy/src/util/ringbuffer.h ****     RingBuffer() {}
  22:../../libdaisy/src/util/ringbuffer.h **** 
  23:../../libdaisy/src/util/ringbuffer.h ****     /** Initializes the Ring Buffer */
  24:../../libdaisy/src/util/ringbuffer.h ****     inline void Init() { read_ptr_ = write_ptr_ = 0; }
 595              		.loc 13 24 17 is_stmt 1 view .LVU136
 596              	.LBE216:
  97:../../libdaisy/src/hid/midi.h **** 
  98:../../libdaisy/src/hid/midi.h ****         transport_.Init(config_.transport_config);
  99:../../libdaisy/src/hid/midi.h **** 
 100:../../libdaisy/src/hid/midi.h ****         event_q_.Init();
 101:../../libdaisy/src/hid/midi.h ****         incoming_message_.type = MessageLast;
 597              		.loc 9 101 32 is_stmt 0 view .LVU137
 598 003a 0A23     		movs	r3, #10
 599              	.LBB219:
 600              	.LBB217:
 601              		.loc 13 24 49 view .LVU138
 602 003c C5F89C40 		str	r4, [r5, #156]
 603              	.LBE217:
 604              	.LBE219:
 102:../../libdaisy/src/hid/midi.h ****         pstate_                = ParserEmpty;
 605              		.loc 9 102 32 view .LVU139
 606 0040 3471     		strb	r4, [r6, #4]
 607              	.LBB220:
 608              	.LBB218:
 609              		.loc 13 24 36 view .LVU140
 610 0042 C5F89840 		str	r4, [r5, #152]
 611              	.LVL30:
 612              		.loc 13 24 36 view .LVU141
 613              	.LBE218:
 614              	.LBE220:
 101:../../libdaisy/src/hid/midi.h ****         pstate_                = ParserEmpty;
 615              		.loc 9 101 32 view .LVU142
 616 0046 3372     		strb	r3, [r6, #8]
 617              	.LBE221:
 618              	.LBE223:
  57:DrumModule.cpp **** }
 619              		.loc 10 57 1 view .LVU143
 620 0048 08B0     		add	sp, sp, #32
 621              		.cfi_def_cfa_offset 16
 622              		@ sp needed
 623 004a 70BD     		pop	{r4, r5, r6, pc}
 624              	.L32:
 625              		.align	2
 626              	.L31:
 627 004c 00000000 		.word	midi
 628 0050 01070106 		.word	100730625
 629              		.cfi_endproc
 630              	.LFE4243:
 632              		.section	.text._ZN5daisy11MidiHandlerINS_17MidiUartTransportEE5ParseEh,"axG",%progbits,_ZN5daisy11
 633              		.align	1
 634              		.p2align 2,,3
 635              		.weak	_ZN5daisy11MidiHandlerINS_17MidiUartTransportEE5ParseEh
 636              		.syntax unified
 637              		.thumb
 638              		.thumb_func
 639              		.fpu fpv5-d16
 641              	_ZN5daisy11MidiHandlerINS_17MidiUartTransportEE5ParseEh:
ARM GAS  /var/folders/0z/b9p8b05s1kb5msq549c5__rh0000gn/T//cc8CuGSI.s 			page 30


 642              	.LVL31:
 643              	.LFB4677:
 103:../../libdaisy/src/hid/midi.h ****     }
 104:../../libdaisy/src/hid/midi.h **** 
 105:../../libdaisy/src/hid/midi.h ****     /** Starts listening on the selected input mode(s). MidiEvent Queue will begin to fill, and can
 106:../../libdaisy/src/hid/midi.h ****     void StartReceive() { transport_.StartRx(); }
 107:../../libdaisy/src/hid/midi.h **** 
 108:../../libdaisy/src/hid/midi.h ****     /** Start listening */
 109:../../libdaisy/src/hid/midi.h ****     void Listen()
 110:../../libdaisy/src/hid/midi.h ****     {
 111:../../libdaisy/src/hid/midi.h ****         uint32_t now;
 112:../../libdaisy/src/hid/midi.h ****         now = System::GetNow();
 113:../../libdaisy/src/hid/midi.h ****         while(transport_.Readable())
 114:../../libdaisy/src/hid/midi.h ****         {
 115:../../libdaisy/src/hid/midi.h ****             last_read_ = now;
 116:../../libdaisy/src/hid/midi.h ****             Parse(transport_.Rx());
 117:../../libdaisy/src/hid/midi.h ****         }
 118:../../libdaisy/src/hid/midi.h **** 
 119:../../libdaisy/src/hid/midi.h ****         // In case of UART Error, (particularly
 120:../../libdaisy/src/hid/midi.h ****         //  overrun error), UART disables itself.
 121:../../libdaisy/src/hid/midi.h ****         // Flush the buff, and restart.
 122:../../libdaisy/src/hid/midi.h ****         if(!transport_.RxActive())
 123:../../libdaisy/src/hid/midi.h ****         {
 124:../../libdaisy/src/hid/midi.h ****             pstate_ = ParserEmpty;
 125:../../libdaisy/src/hid/midi.h ****             transport_.FlushRx();
 126:../../libdaisy/src/hid/midi.h ****             StartReceive();
 127:../../libdaisy/src/hid/midi.h ****         }
 128:../../libdaisy/src/hid/midi.h ****     }
 129:../../libdaisy/src/hid/midi.h **** 
 130:../../libdaisy/src/hid/midi.h ****     /** Checks if there are unhandled messages in the queue 
 131:../../libdaisy/src/hid/midi.h ****     \return True if there are events to be handled, else false.
 132:../../libdaisy/src/hid/midi.h ****      */
 133:../../libdaisy/src/hid/midi.h ****     bool HasEvents() const { return event_q_.readable(); }
 134:../../libdaisy/src/hid/midi.h **** 
 135:../../libdaisy/src/hid/midi.h **** 
 136:../../libdaisy/src/hid/midi.h ****     /** Pops the oldest unhandled MidiEvent from the internal queue
 137:../../libdaisy/src/hid/midi.h ****     \return The event to be handled
 138:../../libdaisy/src/hid/midi.h ****      */
 139:../../libdaisy/src/hid/midi.h ****     MidiEvent PopEvent() { return event_q_.Read(); }
 140:../../libdaisy/src/hid/midi.h **** 
 141:../../libdaisy/src/hid/midi.h ****     /** SendMessage
 142:../../libdaisy/src/hid/midi.h ****     Send raw bytes as message
 143:../../libdaisy/src/hid/midi.h ****     */
 144:../../libdaisy/src/hid/midi.h ****     void SendMessage(uint8_t* bytes, size_t size)
 145:../../libdaisy/src/hid/midi.h ****     {
 146:../../libdaisy/src/hid/midi.h ****         transport_.Tx(bytes, size);
 147:../../libdaisy/src/hid/midi.h ****     }
 148:../../libdaisy/src/hid/midi.h **** 
 149:../../libdaisy/src/hid/midi.h ****     /** Feed in bytes to state machine from a queue.
 150:../../libdaisy/src/hid/midi.h ****     Populates internal FIFO queue with MIDI Messages
 151:../../libdaisy/src/hid/midi.h ****     For example with uart:
 152:../../libdaisy/src/hid/midi.h ****     midi.Parse(uart.PopRx());
 153:../../libdaisy/src/hid/midi.h ****     \param byte &
 154:../../libdaisy/src/hid/midi.h ****     */
 155:../../libdaisy/src/hid/midi.h ****     void Parse(uint8_t byte)
 644              		.loc 9 155 10 is_stmt 1 view -0
 645              		.cfi_startproc
ARM GAS  /var/folders/0z/b9p8b05s1kb5msq549c5__rh0000gn/T//cc8CuGSI.s 			page 31


 646              		@ args = 0, pretend = 0, frame = 288
 647              		@ frame_needed = 0, uses_anonymous_args = 0
 648              		.loc 9 155 10 is_stmt 0 view .LVU145
 649 0000 0379     		ldrb	r3, [r0, #4]	@ zero_extendqisi2
 650 0002 2DE9F041 		push	{r4, r5, r6, r7, r8, lr}
 651              		.cfi_def_cfa_offset 24
 652              		.cfi_offset 4, -24
 653              		.cfi_offset 5, -20
 654              		.cfi_offset 6, -16
 655              		.cfi_offset 7, -12
 656              		.cfi_offset 8, -8
 657              		.cfi_offset 14, -4
 658 0006 0446     		mov	r4, r0
 659 0008 C8B0     		sub	sp, sp, #288
 660              		.cfi_def_cfa_offset 312
 661 000a 032B     		cmp	r3, #3
 662 000c 0CD8     		bhi	.L33
 663 000e DFE803F0 		tbb	[pc, r3]
 664              	.L36:
 665 0012 6A       		.byte	(.L39-.L36)/2
 666 0013 1D       		.byte	(.L38-.L36)/2
 667 0014 02       		.byte	(.L37-.L36)/2
 668 0015 0E       		.byte	(.L35-.L36)/2
 669              		.p2align 1
 670              	.L37:
 156:../../libdaisy/src/hid/midi.h ****     {
 157:../../libdaisy/src/hid/midi.h ****         switch(pstate_)
 158:../../libdaisy/src/hid/midi.h ****         {
 159:../../libdaisy/src/hid/midi.h ****             case ParserEmpty:
 160:../../libdaisy/src/hid/midi.h ****                 // check byte for valid Status Byte
 161:../../libdaisy/src/hid/midi.h ****                 if(byte & kStatusByteMask)
 162:../../libdaisy/src/hid/midi.h ****                 {
 163:../../libdaisy/src/hid/midi.h ****                     // Get MessageType, and Channel
 164:../../libdaisy/src/hid/midi.h ****                     incoming_message_.channel = byte & kChannelMask;
 165:../../libdaisy/src/hid/midi.h ****                     incoming_message_.type    = static_cast<MidiMessageType>(
 166:../../libdaisy/src/hid/midi.h ****                         (byte & kMessageMask) >> 4);
 167:../../libdaisy/src/hid/midi.h **** 
 168:../../libdaisy/src/hid/midi.h ****                     // Validate, and move on.
 169:../../libdaisy/src/hid/midi.h ****                     if(incoming_message_.type < MessageLast)
 170:../../libdaisy/src/hid/midi.h ****                     {
 171:../../libdaisy/src/hid/midi.h ****                         pstate_ = ParserHasStatus;
 172:../../libdaisy/src/hid/midi.h ****                         // Mark this status byte as running_status
 173:../../libdaisy/src/hid/midi.h ****                         running_status_ = incoming_message_.type;
 174:../../libdaisy/src/hid/midi.h **** 
 175:../../libdaisy/src/hid/midi.h ****                         if(running_status_ == SystemCommon)
 176:../../libdaisy/src/hid/midi.h ****                         {
 177:../../libdaisy/src/hid/midi.h ****                             incoming_message_.channel = 0;
 178:../../libdaisy/src/hid/midi.h ****                             //system real time = 1111 1xxx
 179:../../libdaisy/src/hid/midi.h ****                             if(byte & 0x08)
 180:../../libdaisy/src/hid/midi.h ****                             {
 181:../../libdaisy/src/hid/midi.h ****                                 incoming_message_.type = SystemRealTime;
 182:../../libdaisy/src/hid/midi.h ****                                 running_status_        = SystemRealTime;
 183:../../libdaisy/src/hid/midi.h ****                                 incoming_message_.srt_type
 184:../../libdaisy/src/hid/midi.h ****                                     = static_cast<SystemRealTimeType>(
 185:../../libdaisy/src/hid/midi.h ****                                         byte & kSystemRealTimeMask);
 186:../../libdaisy/src/hid/midi.h **** 
 187:../../libdaisy/src/hid/midi.h ****                                 //short circuit to start
ARM GAS  /var/folders/0z/b9p8b05s1kb5msq549c5__rh0000gn/T//cc8CuGSI.s 			page 32


 188:../../libdaisy/src/hid/midi.h ****                                 pstate_ = ParserEmpty;
 189:../../libdaisy/src/hid/midi.h ****                                 event_q_.Write(incoming_message_);
 190:../../libdaisy/src/hid/midi.h ****                             }
 191:../../libdaisy/src/hid/midi.h ****                             //system common
 192:../../libdaisy/src/hid/midi.h ****                             else
 193:../../libdaisy/src/hid/midi.h ****                             {
 194:../../libdaisy/src/hid/midi.h ****                                 incoming_message_.sc_type
 195:../../libdaisy/src/hid/midi.h ****                                     = static_cast<SystemCommonType>(byte
 196:../../libdaisy/src/hid/midi.h ****                                                                     & 0x07);
 197:../../libdaisy/src/hid/midi.h ****                                 //sysex
 198:../../libdaisy/src/hid/midi.h ****                                 if(incoming_message_.sc_type == SystemExclusive)
 199:../../libdaisy/src/hid/midi.h ****                                 {
 200:../../libdaisy/src/hid/midi.h ****                                     pstate_ = ParserSysEx;
 201:../../libdaisy/src/hid/midi.h ****                                     incoming_message_.sysex_message_len = 0;
 202:../../libdaisy/src/hid/midi.h ****                                 }
 203:../../libdaisy/src/hid/midi.h ****                                 //short circuit
 204:../../libdaisy/src/hid/midi.h ****                                 else if(incoming_message_.sc_type > SongSelect)
 205:../../libdaisy/src/hid/midi.h ****                                 {
 206:../../libdaisy/src/hid/midi.h ****                                     pstate_ = ParserEmpty;
 207:../../libdaisy/src/hid/midi.h ****                                     event_q_.Write(incoming_message_);
 208:../../libdaisy/src/hid/midi.h ****                                 }
 209:../../libdaisy/src/hid/midi.h ****                             }
 210:../../libdaisy/src/hid/midi.h ****                         }
 211:../../libdaisy/src/hid/midi.h ****                     }
 212:../../libdaisy/src/hid/midi.h ****                     // Else we'll keep waiting for a valid incoming status byte
 213:../../libdaisy/src/hid/midi.h ****                 }
 214:../../libdaisy/src/hid/midi.h ****                 else
 215:../../libdaisy/src/hid/midi.h ****                 {
 216:../../libdaisy/src/hid/midi.h ****                     // Handle as running status
 217:../../libdaisy/src/hid/midi.h ****                     incoming_message_.type    = running_status_;
 218:../../libdaisy/src/hid/midi.h ****                     incoming_message_.data[0] = byte & kDataByteMask;
 219:../../libdaisy/src/hid/midi.h ****                     pstate_                   = ParserHasData0;
 220:../../libdaisy/src/hid/midi.h ****                 }
 221:../../libdaisy/src/hid/midi.h ****                 break;
 222:../../libdaisy/src/hid/midi.h ****             case ParserHasStatus:
 223:../../libdaisy/src/hid/midi.h ****                 if((byte & kStatusByteMask) == 0)
 224:../../libdaisy/src/hid/midi.h ****                 {
 225:../../libdaisy/src/hid/midi.h ****                     incoming_message_.data[0] = byte & kDataByteMask;
 226:../../libdaisy/src/hid/midi.h ****                     if(running_status_ == ChannelPressure
 227:../../libdaisy/src/hid/midi.h ****                        || running_status_ == ProgramChange
 228:../../libdaisy/src/hid/midi.h ****                        || incoming_message_.sc_type == MTCQuarterFrame
 229:../../libdaisy/src/hid/midi.h ****                        || incoming_message_.sc_type == SongSelect)
 230:../../libdaisy/src/hid/midi.h ****                     {
 231:../../libdaisy/src/hid/midi.h ****                         //these are just one data byte, so we short circuit back to start
 232:../../libdaisy/src/hid/midi.h ****                         pstate_ = ParserEmpty;
 233:../../libdaisy/src/hid/midi.h ****                         event_q_.Write(incoming_message_);
 234:../../libdaisy/src/hid/midi.h ****                     }
 235:../../libdaisy/src/hid/midi.h ****                     else
 236:../../libdaisy/src/hid/midi.h ****                     {
 237:../../libdaisy/src/hid/midi.h ****                         pstate_ = ParserHasData0;
 238:../../libdaisy/src/hid/midi.h ****                     }
 239:../../libdaisy/src/hid/midi.h **** 
 240:../../libdaisy/src/hid/midi.h ****                     //ChannelModeMessages (reserved Control Changes)
 241:../../libdaisy/src/hid/midi.h ****                     if(running_status_ == ControlChange
 242:../../libdaisy/src/hid/midi.h ****                        && incoming_message_.data[0] > 119)
 243:../../libdaisy/src/hid/midi.h ****                     {
 244:../../libdaisy/src/hid/midi.h ****                         incoming_message_.type = ChannelMode;
ARM GAS  /var/folders/0z/b9p8b05s1kb5msq549c5__rh0000gn/T//cc8CuGSI.s 			page 33


 245:../../libdaisy/src/hid/midi.h ****                         running_status_        = ChannelMode;
 246:../../libdaisy/src/hid/midi.h ****                         incoming_message_.cm_type
 247:../../libdaisy/src/hid/midi.h ****                             = static_cast<ChannelModeType>(
 248:../../libdaisy/src/hid/midi.h ****                                 incoming_message_.data[0] - 120);
 249:../../libdaisy/src/hid/midi.h ****                     }
 250:../../libdaisy/src/hid/midi.h ****                 }
 251:../../libdaisy/src/hid/midi.h ****                 else
 252:../../libdaisy/src/hid/midi.h ****                 {
 253:../../libdaisy/src/hid/midi.h ****                     // invalid message go back to start ;p
 254:../../libdaisy/src/hid/midi.h ****                     pstate_ = ParserEmpty;
 255:../../libdaisy/src/hid/midi.h ****                 }
 256:../../libdaisy/src/hid/midi.h ****                 break;
 257:../../libdaisy/src/hid/midi.h ****             case ParserHasData0:
 258:../../libdaisy/src/hid/midi.h ****                 if((byte & kStatusByteMask) == 0)
 671              		.loc 9 258 28 view .LVU146
 672 0016 00F51045 		add	r5, r0, #36864
 673              		.loc 9 258 26 view .LVU147
 674 001a 95F8B430 		ldrb	r3, [r5, #180]	@ zero_extendqisi2
 675              		.loc 9 258 17 view .LVU148
 676 001e 0B40     		ands	r3, r1, r3
 677 0020 00F09580 		beq	.L83
 678              	.L47:
 254:../../libdaisy/src/hid/midi.h ****                 }
 679              		.loc 9 254 29 view .LVU149
 680 0024 0023     		movs	r3, #0
 681 0026 2371     		strb	r3, [r4, #4]
 682              	.LVL32:
 683              	.L33:
 259:../../libdaisy/src/hid/midi.h ****                 {
 260:../../libdaisy/src/hid/midi.h ****                     incoming_message_.data[1] = byte & kDataByteMask;
 261:../../libdaisy/src/hid/midi.h **** 
 262:../../libdaisy/src/hid/midi.h ****                     //velocity 0 NoteOns are NoteOffs
 263:../../libdaisy/src/hid/midi.h ****                     if(running_status_ == NoteOn
 264:../../libdaisy/src/hid/midi.h ****                        && incoming_message_.data[1] == 0)
 265:../../libdaisy/src/hid/midi.h ****                     {
 266:../../libdaisy/src/hid/midi.h ****                         incoming_message_.type = running_status_ = NoteOff;
 267:../../libdaisy/src/hid/midi.h ****                     }
 268:../../libdaisy/src/hid/midi.h **** 
 269:../../libdaisy/src/hid/midi.h ****                     // At this point the message is valid, and we can add this MidiEvent to the que
 270:../../libdaisy/src/hid/midi.h ****                     event_q_.Write(incoming_message_);
 271:../../libdaisy/src/hid/midi.h ****                 }
 272:../../libdaisy/src/hid/midi.h ****                 // Regardless, of whether the data was valid or not we go back to empty
 273:../../libdaisy/src/hid/midi.h ****                 // because either the message is queued for handling or its not.
 274:../../libdaisy/src/hid/midi.h ****                 pstate_ = ParserEmpty;
 275:../../libdaisy/src/hid/midi.h ****                 break;
 276:../../libdaisy/src/hid/midi.h ****             case ParserSysEx:
 277:../../libdaisy/src/hid/midi.h ****                 // end of sysex
 278:../../libdaisy/src/hid/midi.h ****                 if(byte == 0xf7)
 279:../../libdaisy/src/hid/midi.h ****                 {
 280:../../libdaisy/src/hid/midi.h ****                     pstate_ = ParserEmpty;
 281:../../libdaisy/src/hid/midi.h ****                     event_q_.Write(incoming_message_);
 282:../../libdaisy/src/hid/midi.h ****                 }
 283:../../libdaisy/src/hid/midi.h ****                 else if(incoming_message_.sysex_message_len < SYSEX_BUFFER_LEN)
 284:../../libdaisy/src/hid/midi.h ****                 {
 285:../../libdaisy/src/hid/midi.h ****                     incoming_message_
 286:../../libdaisy/src/hid/midi.h ****                         .sysex_data[incoming_message_.sysex_message_len]
 287:../../libdaisy/src/hid/midi.h ****                         = byte;
ARM GAS  /var/folders/0z/b9p8b05s1kb5msq549c5__rh0000gn/T//cc8CuGSI.s 			page 34


 288:../../libdaisy/src/hid/midi.h ****                     incoming_message_.sysex_message_len++;
 289:../../libdaisy/src/hid/midi.h ****                 }
 290:../../libdaisy/src/hid/midi.h ****                 break;
 291:../../libdaisy/src/hid/midi.h ****             default: break;
 292:../../libdaisy/src/hid/midi.h ****         }
 293:../../libdaisy/src/hid/midi.h ****     }
 684              		.loc 9 293 5 view .LVU150
 685 0028 48B0     		add	sp, sp, #288
 686              		.cfi_remember_state
 687              		.cfi_def_cfa_offset 24
 688              		@ sp needed
 689 002a BDE8F081 		pop	{r4, r5, r6, r7, r8, pc}
 690              	.LVL33:
 691              	.L35:
 692              		.cfi_restore_state
 278:../../libdaisy/src/hid/midi.h ****                 {
 693              		.loc 9 278 17 view .LVU151
 694 002e F729     		cmp	r1, #247
 695 0030 00F0BF80 		beq	.L84
 283:../../libdaisy/src/hid/midi.h ****                 {
 696              		.loc 9 283 22 view .LVU152
 697 0034 90F99220 		ldrsb	r2, [r0, #146]
 283:../../libdaisy/src/hid/midi.h ****                 {
 698              		.loc 9 283 43 view .LVU153
 699 0038 90F89230 		ldrb	r3, [r0, #146]	@ zero_extendqisi2
 283:../../libdaisy/src/hid/midi.h ****                 {
 700              		.loc 9 283 22 view .LVU154
 701 003c 002A     		cmp	r2, #0
 702 003e F3DB     		blt	.L33
 287:../../libdaisy/src/hid/midi.h ****                     incoming_message_.sysex_message_len++;
 703              		.loc 9 287 25 view .LVU155
 704 0040 C218     		adds	r2, r0, r3
 288:../../libdaisy/src/hid/midi.h ****                 }
 705              		.loc 9 288 21 view .LVU156
 706 0042 0133     		adds	r3, r3, #1
 287:../../libdaisy/src/hid/midi.h ****                     incoming_message_.sysex_message_len++;
 707              		.loc 9 287 25 view .LVU157
 708 0044 9174     		strb	r1, [r2, #18]
 288:../../libdaisy/src/hid/midi.h ****                 }
 709              		.loc 9 288 21 view .LVU158
 710 0046 80F89230 		strb	r3, [r0, #146]
 711              		.loc 9 293 5 view .LVU159
 712 004a EDE7     		b	.L33
 713              	.L38:
 223:../../libdaisy/src/hid/midi.h ****                 {
 714              		.loc 9 223 28 view .LVU160
 715 004c 00F51045 		add	r5, r0, #36864
 223:../../libdaisy/src/hid/midi.h ****                 {
 716              		.loc 9 223 26 view .LVU161
 717 0050 95F8B430 		ldrb	r3, [r5, #180]	@ zero_extendqisi2
 223:../../libdaisy/src/hid/midi.h ****                 {
 718              		.loc 9 223 17 view .LVU162
 719 0054 1942     		tst	r1, r3
 720 0056 E5D1     		bne	.L47
 225:../../libdaisy/src/hid/midi.h ****                     if(running_status_ == ChannelPressure
 721              		.loc 9 225 54 view .LVU163
 722 0058 95F8B680 		ldrb	r8, [r5, #182]	@ zero_extendqisi2
ARM GAS  /var/folders/0z/b9p8b05s1kb5msq549c5__rh0000gn/T//cc8CuGSI.s 			page 35


 723 005c 01EA0808 		and	r8, r1, r8
 225:../../libdaisy/src/hid/midi.h ****                     if(running_status_ == ChannelPressure
 724              		.loc 9 225 47 view .LVU164
 725 0060 80F81080 		strb	r8, [r0, #16]
 226:../../libdaisy/src/hid/midi.h ****                        || running_status_ == ProgramChange
 726              		.loc 9 226 24 view .LVU165
 727 0064 95F8A470 		ldrb	r7, [r5, #164]	@ zero_extendqisi2
 226:../../libdaisy/src/hid/midi.h ****                        || running_status_ == ProgramChange
 728              		.loc 9 226 21 view .LVU166
 729 0068 3B1F     		subs	r3, r7, #4
 730 006a 012B     		cmp	r3, #1
 731 006c 06D9     		bls	.L48
 228:../../libdaisy/src/hid/midi.h ****                        || incoming_message_.sc_type == SongSelect)
 732              		.loc 9 228 24 view .LVU167
 733 006e 90F89330 		ldrb	r3, [r0, #147]	@ zero_extendqisi2
 229:../../libdaisy/src/hid/midi.h ****                     {
 734              		.loc 9 229 24 view .LVU168
 735 0072 03F0FD03 		and	r3, r3, #253
 736 0076 012B     		cmp	r3, #1
 737 0078 40F0C580 		bne	.L49
 738              	.L48:
 232:../../libdaisy/src/hid/midi.h ****                         event_q_.Write(incoming_message_);
 739              		.loc 9 232 33 view .LVU169
 740 007c 0023     		movs	r3, #0
 741 007e 6E46     		mov	r6, sp
 742 0080 9022     		movs	r2, #144
 743 0082 04F10801 		add	r1, r4, #8
 744              	.LVL34:
 232:../../libdaisy/src/hid/midi.h ****                         event_q_.Write(incoming_message_);
 745              		.loc 9 232 33 view .LVU170
 746 0086 3046     		mov	r0, r6
 747              	.LVL35:
 232:../../libdaisy/src/hid/midi.h ****                         event_q_.Write(incoming_message_);
 748              		.loc 9 232 33 view .LVU171
 749 0088 2371     		strb	r3, [r4, #4]
 750              	.LVL36:
 232:../../libdaisy/src/hid/midi.h ****                         event_q_.Write(incoming_message_);
 751              		.loc 9 232 33 view .LVU172
 752 008a FFF7FEFF 		bl	memcpy
 753              	.LVL37:
 754              	.LBB254:
 755              	.LBI254:
  25:../../libdaisy/src/util/ringbuffer.h **** 
  26:../../libdaisy/src/util/ringbuffer.h ****     /** \return The total size of the ring buffer */
  27:../../libdaisy/src/util/ringbuffer.h ****     inline size_t capacity() const { return size; }
  28:../../libdaisy/src/util/ringbuffer.h **** 
  29:../../libdaisy/src/util/ringbuffer.h ****     /** \return the number of samples that can be written to ring buffer without overwriting unread
  30:../../libdaisy/src/util/ringbuffer.h ****     inline size_t writable() const
  31:../../libdaisy/src/util/ringbuffer.h ****     {
  32:../../libdaisy/src/util/ringbuffer.h ****         return (read_ptr_ - write_ptr_ - 1) % size;
  33:../../libdaisy/src/util/ringbuffer.h ****     }
  34:../../libdaisy/src/util/ringbuffer.h **** 
  35:../../libdaisy/src/util/ringbuffer.h ****     /** \return number of unread elements in ring buffer */
  36:../../libdaisy/src/util/ringbuffer.h ****     inline size_t readable() const { return (write_ptr_ - read_ptr_) % size; }
  37:../../libdaisy/src/util/ringbuffer.h **** 
  38:../../libdaisy/src/util/ringbuffer.h ****     /** \returns True, if the buffer is empty. */
  39:../../libdaisy/src/util/ringbuffer.h ****     inline bool isEmpty() const { return write_ptr_ == read_ptr_; }
ARM GAS  /var/folders/0z/b9p8b05s1kb5msq549c5__rh0000gn/T//cc8CuGSI.s 			page 36


  40:../../libdaisy/src/util/ringbuffer.h **** 
  41:../../libdaisy/src/util/ringbuffer.h ****     /** Writes the value to the next available position in the ring buffer
  42:../../libdaisy/src/util/ringbuffer.h ****     \param v Value to write
  43:../../libdaisy/src/util/ringbuffer.h ****     */
  44:../../libdaisy/src/util/ringbuffer.h ****     inline void Write(T v)
 756              		.loc 13 44 17 is_stmt 1 view .LVU173
 757              	.L50:
 758              	.LBB255:
  45:../../libdaisy/src/util/ringbuffer.h ****     {
  46:../../libdaisy/src/util/ringbuffer.h ****         while(!writable())
 759              		.loc 13 46 24 view .LVU174
 760              	.LBB256:
 761              	.LBI256:
  30:../../libdaisy/src/util/ringbuffer.h ****     {
 762              		.loc 13 30 19 view .LVU175
 763              	.LBB257:
  32:../../libdaisy/src/util/ringbuffer.h ****     }
 764              		.loc 13 32 17 is_stmt 0 view .LVU176
 765 008e D5F89830 		ldr	r3, [r5, #152]
  32:../../libdaisy/src/util/ringbuffer.h ****     }
 766              		.loc 13 32 29 view .LVU177
 767 0092 D5F89C20 		ldr	r2, [r5, #156]
 768              	.LVL38:
  32:../../libdaisy/src/util/ringbuffer.h ****     }
 769              		.loc 13 32 40 view .LVU178
 770 0096 013B     		subs	r3, r3, #1
 771 0098 9B1A     		subs	r3, r3, r2
  32:../../libdaisy/src/util/ringbuffer.h ****     }
 772              		.loc 13 32 47 view .LVU179
 773 009a DBB2     		uxtb	r3, r3
 774              	.LBE257:
 775              	.LBE256:
 776              		.loc 13 46 24 view .LVU180
 777 009c 002B     		cmp	r3, #0
 778 009e F6D0     		beq	.L50
 779              	.LVL39:
 780              		.loc 13 46 24 view .LVU181
 781 00a0 9022     		movs	r2, #144
 782 00a2 3146     		mov	r1, r6
 783 00a4 0DEB0200 		add	r0, sp, r2
 784 00a8 FFF7FEFF 		bl	memcpy
 785              	.LVL40:
 786              	.LBB258:
 787              	.LBI258:
  47:../../libdaisy/src/util/ringbuffer.h ****             ;
  48:../../libdaisy/src/util/ringbuffer.h ****         Overwrite(v);
  49:../../libdaisy/src/util/ringbuffer.h ****     }
  50:../../libdaisy/src/util/ringbuffer.h **** 
  51:../../libdaisy/src/util/ringbuffer.h ****     /** Writes the new element to the ring buffer, overwriting unread data if necessary. 
  52:../../libdaisy/src/util/ringbuffer.h ****     \param v Value to overwrite
  53:../../libdaisy/src/util/ringbuffer.h ****      */
  54:../../libdaisy/src/util/ringbuffer.h ****     inline void Overwrite(T v)
 788              		.loc 13 54 17 is_stmt 1 view .LVU182
 789              	.LBB259:
  55:../../libdaisy/src/util/ringbuffer.h ****     {
  56:../../libdaisy/src/util/ringbuffer.h ****         size_t w   = write_ptr_;
 790              		.loc 13 56 16 is_stmt 0 view .LVU183
ARM GAS  /var/folders/0z/b9p8b05s1kb5msq549c5__rh0000gn/T//cc8CuGSI.s 			page 37


 791 00ac D5F89C60 		ldr	r6, [r5, #156]
 792              	.LVL41:
  57:../../libdaisy/src/util/ringbuffer.h ****         buffer_[w] = v;
 793              		.loc 13 57 9 view .LVU184
 794 00b0 24A9     		add	r1, sp, #144
 795 00b2 9022     		movs	r2, #144
 796 00b4 06EBC600 		add	r0, r6, r6, lsl #3
  58:../../libdaisy/src/util/ringbuffer.h ****         write_ptr_ = (w + 1) % size;
 797              		.loc 13 58 25 view .LVU185
 798 00b8 0136     		adds	r6, r6, #1
 799              	.LVL42:
  57:../../libdaisy/src/util/ringbuffer.h ****         buffer_[w] = v;
 800              		.loc 13 57 9 view .LVU186
 801 00ba 04EB0010 		add	r0, r4, r0, lsl #4
 802              		.loc 13 58 30 view .LVU187
 803 00be F6B2     		uxtb	r6, r6
 804              	.LVL43:
  57:../../libdaisy/src/util/ringbuffer.h ****         buffer_[w] = v;
 805              		.loc 13 57 9 view .LVU188
 806 00c0 9830     		adds	r0, r0, #152
 807 00c2 FFF7FEFF 		bl	memcpy
 808              	.LVL44:
 809              		.loc 13 58 20 view .LVU189
 810 00c6 C5F89C60 		str	r6, [r5, #156]
 811              	.LVL45:
 812              	.L51:
 813              		.loc 13 58 20 view .LVU190
 814              	.LBE259:
 815              	.LBE258:
 816              	.LBE255:
 817              	.LBE254:
 242:../../libdaisy/src/hid/midi.h ****                     {
 818              		.loc 9 242 24 view .LVU191
 819 00ca B8F1770F 		cmp	r8, #119
 820 00ce ABD9     		bls	.L33
 821 00d0 032F     		cmp	r7, #3
 822 00d2 A9D1     		bne	.L33
 244:../../libdaisy/src/hid/midi.h ****                         running_status_        = ChannelMode;
 823              		.loc 9 244 48 view .LVU192
 824 00d4 0923     		movs	r3, #9
 248:../../libdaisy/src/hid/midi.h ****                     }
 825              		.loc 9 248 59 view .LVU193
 826 00d6 A8F17801 		sub	r1, r8, #120
 244:../../libdaisy/src/hid/midi.h ****                         running_status_        = ChannelMode;
 827              		.loc 9 244 48 view .LVU194
 828 00da 2372     		strb	r3, [r4, #8]
 245:../../libdaisy/src/hid/midi.h ****                         incoming_message_.cm_type
 829              		.loc 9 245 48 view .LVU195
 830 00dc 85F8A430 		strb	r3, [r5, #164]
 247:../../libdaisy/src/hid/midi.h ****                                 incoming_message_.data[0] - 120);
 831              		.loc 9 247 29 view .LVU196
 832 00e0 84F89510 		strb	r1, [r4, #149]
 833 00e4 A0E7     		b	.L33
 834              	.LVL46:
 835              	.L39:
 161:../../libdaisy/src/hid/midi.h ****                 {
 836              		.loc 9 161 27 view .LVU197
ARM GAS  /var/folders/0z/b9p8b05s1kb5msq549c5__rh0000gn/T//cc8CuGSI.s 			page 38


 837 00e6 00F51045 		add	r5, r0, #36864
 161:../../libdaisy/src/hid/midi.h ****                 {
 838              		.loc 9 161 25 view .LVU198
 839 00ea 95F8B430 		ldrb	r3, [r5, #180]	@ zero_extendqisi2
 161:../../libdaisy/src/hid/midi.h ****                 {
 840              		.loc 9 161 17 view .LVU199
 841 00ee 1942     		tst	r1, r3
 842 00f0 21D0     		beq	.L40
 164:../../libdaisy/src/hid/midi.h ****                     incoming_message_.type    = static_cast<MidiMessageType>(
 843              		.loc 9 164 54 view .LVU200
 844 00f2 95F8B830 		ldrb	r3, [r5, #184]	@ zero_extendqisi2
 845 00f6 0B40     		ands	r3, r3, r1
 846 00f8 C360     		str	r3, [r0, #12]
 166:../../libdaisy/src/hid/midi.h **** 
 847              		.loc 9 166 31 view .LVU201
 848 00fa 95F8B530 		ldrb	r3, [r5, #181]	@ zero_extendqisi2
 166:../../libdaisy/src/hid/midi.h **** 
 849              		.loc 9 166 47 view .LVU202
 850 00fe 0B40     		ands	r3, r3, r1
 851 0100 1B09     		lsrs	r3, r3, #4
 169:../../libdaisy/src/hid/midi.h ****                     {
 852              		.loc 9 169 21 view .LVU203
 853 0102 092B     		cmp	r3, #9
 165:../../libdaisy/src/hid/midi.h ****                         (byte & kMessageMask) >> 4);
 854              		.loc 9 165 47 view .LVU204
 855 0104 0372     		strb	r3, [r0, #8]
 169:../../libdaisy/src/hid/midi.h ****                     {
 856              		.loc 9 169 21 view .LVU205
 857 0106 8FD8     		bhi	.L33
 171:../../libdaisy/src/hid/midi.h ****                         // Mark this status byte as running_status
 858              		.loc 9 171 33 view .LVU206
 859 0108 0122     		movs	r2, #1
 175:../../libdaisy/src/hid/midi.h ****                         {
 860              		.loc 9 175 25 view .LVU207
 861 010a 072B     		cmp	r3, #7
 171:../../libdaisy/src/hid/midi.h ****                         // Mark this status byte as running_status
 862              		.loc 9 171 33 view .LVU208
 863 010c 0271     		strb	r2, [r0, #4]
 173:../../libdaisy/src/hid/midi.h **** 
 864              		.loc 9 173 41 view .LVU209
 865 010e 85F8A430 		strb	r3, [r5, #164]
 175:../../libdaisy/src/hid/midi.h ****                         {
 866              		.loc 9 175 25 view .LVU210
 867 0112 89D1     		bne	.L33
 177:../../libdaisy/src/hid/midi.h ****                             //system real time = 1111 1xxx
 868              		.loc 9 177 55 view .LVU211
 869 0114 0023     		movs	r3, #0
 870 0116 C360     		str	r3, [r0, #12]
 179:../../libdaisy/src/hid/midi.h ****                             {
 871              		.loc 9 179 29 view .LVU212
 872 0118 11F00800 		ands	r0, r1, #8
 873              	.LVL47:
 179:../../libdaisy/src/hid/midi.h ****                             {
 874              		.loc 9 179 29 view .LVU213
 875 011c 40F0A480 		bne	.L85
 196:../../libdaisy/src/hid/midi.h ****                                 //sysex
 876              		.loc 9 196 69 view .LVU214
ARM GAS  /var/folders/0z/b9p8b05s1kb5msq549c5__rh0000gn/T//cc8CuGSI.s 			page 39


 877 0120 01F00703 		and	r3, r1, #7
 195:../../libdaisy/src/hid/midi.h ****                                                                     & 0x07);
 878              		.loc 9 195 37 view .LVU215
 879 0124 84F89330 		strb	r3, [r4, #147]
 198:../../libdaisy/src/hid/midi.h ****                                 {
 880              		.loc 9 198 33 view .LVU216
 881 0128 002B     		cmp	r3, #0
 882 012a 73D1     		bne	.L45
 200:../../libdaisy/src/hid/midi.h ****                                     incoming_message_.sysex_message_len = 0;
 883              		.loc 9 200 45 view .LVU217
 884 012c 0322     		movs	r2, #3
 201:../../libdaisy/src/hid/midi.h ****                                 }
 885              		.loc 9 201 73 view .LVU218
 886 012e 84F89230 		strb	r3, [r4, #146]
 200:../../libdaisy/src/hid/midi.h ****                                     incoming_message_.sysex_message_len = 0;
 887              		.loc 9 200 45 view .LVU219
 888 0132 2271     		strb	r2, [r4, #4]
 889 0134 78E7     		b	.L33
 890              	.LVL48:
 891              	.L40:
 217:../../libdaisy/src/hid/midi.h ****                     incoming_message_.data[0] = byte & kDataByteMask;
 892              		.loc 9 217 47 view .LVU220
 893 0136 95F8A430 		ldrb	r3, [r5, #164]	@ zero_extendqisi2
 219:../../libdaisy/src/hid/midi.h ****                 }
 894              		.loc 9 219 47 view .LVU221
 895 013a 0222     		movs	r2, #2
 217:../../libdaisy/src/hid/midi.h ****                     incoming_message_.data[0] = byte & kDataByteMask;
 896              		.loc 9 217 47 view .LVU222
 897 013c 0372     		strb	r3, [r0, #8]
 218:../../libdaisy/src/hid/midi.h ****                     pstate_                   = ParserHasData0;
 898              		.loc 9 218 54 view .LVU223
 899 013e 95F8B630 		ldrb	r3, [r5, #182]	@ zero_extendqisi2
 219:../../libdaisy/src/hid/midi.h ****                 }
 900              		.loc 9 219 47 view .LVU224
 901 0142 0271     		strb	r2, [r0, #4]
 218:../../libdaisy/src/hid/midi.h ****                     pstate_                   = ParserHasData0;
 902              		.loc 9 218 54 view .LVU225
 903 0144 1940     		ands	r1, r1, r3
 904              	.LVL49:
 218:../../libdaisy/src/hid/midi.h ****                     pstate_                   = ParserHasData0;
 905              		.loc 9 218 47 view .LVU226
 906 0146 0174     		strb	r1, [r0, #16]
 907              		.loc 9 293 5 view .LVU227
 908 0148 48B0     		add	sp, sp, #288
 909              		.cfi_remember_state
 910              		.cfi_def_cfa_offset 24
 911              		@ sp needed
 912 014a BDE8F081 		pop	{r4, r5, r6, r7, r8, pc}
 913              	.LVL50:
 914              	.L83:
 915              		.cfi_restore_state
 260:../../libdaisy/src/hid/midi.h **** 
 916              		.loc 9 260 54 view .LVU228
 917 014e 95F8B620 		ldrb	r2, [r5, #182]	@ zero_extendqisi2
 918 0152 1140     		ands	r1, r1, r2
 919              	.LVL51:
 260:../../libdaisy/src/hid/midi.h **** 
ARM GAS  /var/folders/0z/b9p8b05s1kb5msq549c5__rh0000gn/T//cc8CuGSI.s 			page 40


 920              		.loc 9 260 47 view .LVU229
 921 0154 4174     		strb	r1, [r0, #17]
 263:../../libdaisy/src/hid/midi.h ****                        && incoming_message_.data[1] == 0)
 922              		.loc 9 263 21 view .LVU230
 923 0156 95F8A420 		ldrb	r2, [r5, #164]	@ zero_extendqisi2
 264:../../libdaisy/src/hid/midi.h ****                     {
 924              		.loc 9 264 24 view .LVU231
 925 015a 012A     		cmp	r2, #1
 926 015c 01D1     		bne	.L52
 927 015e 0029     		cmp	r1, #0
 928 0160 54D0     		beq	.L86
 929              	.L52:
 930              	.LVL52:
 264:../../libdaisy/src/hid/midi.h ****                     {
 931              		.loc 9 264 24 view .LVU232
 932 0162 6E46     		mov	r6, sp
 933 0164 9022     		movs	r2, #144
 934 0166 04F10801 		add	r1, r4, #8
 935 016a 3046     		mov	r0, r6
 936              	.LVL53:
 264:../../libdaisy/src/hid/midi.h ****                     {
 937              		.loc 9 264 24 view .LVU233
 938 016c FFF7FEFF 		bl	memcpy
 939              	.LVL54:
 940              	.LBB260:
 941              	.LBI260:
  44:../../libdaisy/src/util/ringbuffer.h ****     {
 942              		.loc 13 44 17 is_stmt 1 view .LVU234
 943              	.L53:
 944              	.LBB261:
  46:../../libdaisy/src/util/ringbuffer.h ****             ;
 945              		.loc 13 46 24 view .LVU235
 946              	.LBB262:
 947              	.LBI262:
  30:../../libdaisy/src/util/ringbuffer.h ****     {
 948              		.loc 13 30 19 view .LVU236
 949              	.LBB263:
  32:../../libdaisy/src/util/ringbuffer.h ****     }
 950              		.loc 13 32 17 is_stmt 0 view .LVU237
 951 0170 D5F89830 		ldr	r3, [r5, #152]
  32:../../libdaisy/src/util/ringbuffer.h ****     }
 952              		.loc 13 32 29 view .LVU238
 953 0174 D5F89C20 		ldr	r2, [r5, #156]
 954              	.LVL55:
  32:../../libdaisy/src/util/ringbuffer.h ****     }
 955              		.loc 13 32 40 view .LVU239
 956 0178 013B     		subs	r3, r3, #1
 957 017a 9B1A     		subs	r3, r3, r2
  32:../../libdaisy/src/util/ringbuffer.h ****     }
 958              		.loc 13 32 47 view .LVU240
 959 017c DBB2     		uxtb	r3, r3
 960              	.LBE263:
 961              	.LBE262:
  46:../../libdaisy/src/util/ringbuffer.h ****             ;
 962              		.loc 13 46 24 view .LVU241
 963 017e 002B     		cmp	r3, #0
 964 0180 F6D0     		beq	.L53
ARM GAS  /var/folders/0z/b9p8b05s1kb5msq549c5__rh0000gn/T//cc8CuGSI.s 			page 41


 965              	.LVL56:
  46:../../libdaisy/src/util/ringbuffer.h ****             ;
 966              		.loc 13 46 24 view .LVU242
 967 0182 9022     		movs	r2, #144
 968 0184 3146     		mov	r1, r6
 969 0186 0DEB0200 		add	r0, sp, r2
 970 018a FFF7FEFF 		bl	memcpy
 971              	.LVL57:
 972              	.LBB264:
 973              	.LBI264:
  54:../../libdaisy/src/util/ringbuffer.h ****     {
 974              		.loc 13 54 17 is_stmt 1 view .LVU243
 975              	.LBB265:
  56:../../libdaisy/src/util/ringbuffer.h ****         buffer_[w] = v;
 976              		.loc 13 56 16 is_stmt 0 view .LVU244
 977 018e D5F89C60 		ldr	r6, [r5, #156]
 978              	.LVL58:
  57:../../libdaisy/src/util/ringbuffer.h ****         write_ptr_ = (w + 1) % size;
 979              		.loc 13 57 9 view .LVU245
 980 0192 24A9     		add	r1, sp, #144
 981 0194 9022     		movs	r2, #144
 982 0196 06EBC600 		add	r0, r6, r6, lsl #3
 983              		.loc 13 58 25 view .LVU246
 984 019a 0136     		adds	r6, r6, #1
 985              	.LVL59:
  57:../../libdaisy/src/util/ringbuffer.h ****         write_ptr_ = (w + 1) % size;
 986              		.loc 13 57 9 view .LVU247
 987 019c 04EB0010 		add	r0, r4, r0, lsl #4
 988              		.loc 13 58 30 view .LVU248
 989 01a0 F6B2     		uxtb	r6, r6
 990              	.LVL60:
  57:../../libdaisy/src/util/ringbuffer.h ****         write_ptr_ = (w + 1) % size;
 991              		.loc 13 57 9 view .LVU249
 992 01a2 9830     		adds	r0, r0, #152
 993 01a4 FFF7FEFF 		bl	memcpy
 994              	.LVL61:
 995              	.LBE265:
 996              	.LBE264:
 997              	.LBE261:
 998              	.LBE260:
 254:../../libdaisy/src/hid/midi.h ****                 }
 999              		.loc 9 254 29 view .LVU250
 1000 01a8 0023     		movs	r3, #0
 1001              	.LBB269:
 1002              	.LBB268:
 1003              	.LBB267:
 1004              	.LBB266:
 1005              		.loc 13 58 20 view .LVU251
 1006 01aa C5F89C60 		str	r6, [r5, #156]
 1007              	.LVL62:
 1008              		.loc 13 58 20 view .LVU252
 1009              	.LBE266:
 1010              	.LBE267:
 1011              	.LBE268:
 1012              	.LBE269:
 254:../../libdaisy/src/hid/midi.h ****                 }
 1013              		.loc 9 254 29 view .LVU253
ARM GAS  /var/folders/0z/b9p8b05s1kb5msq549c5__rh0000gn/T//cc8CuGSI.s 			page 42


 1014 01ae 2371     		strb	r3, [r4, #4]
 1015 01b0 3AE7     		b	.L33
 1016              	.LVL63:
 1017              	.L84:
 280:../../libdaisy/src/hid/midi.h ****                     event_q_.Write(incoming_message_);
 1018              		.loc 9 280 29 view .LVU254
 1019 01b2 0023     		movs	r3, #0
 1020 01b4 6E46     		mov	r6, sp
 1021 01b6 00F10801 		add	r1, r0, #8
 1022              	.LVL64:
 280:../../libdaisy/src/hid/midi.h ****                     event_q_.Write(incoming_message_);
 1023              		.loc 9 280 29 view .LVU255
 1024 01ba 00F51045 		add	r5, r0, #36864
 1025 01be 0371     		strb	r3, [r0, #4]
 1026              	.LVL65:
 280:../../libdaisy/src/hid/midi.h ****                     event_q_.Write(incoming_message_);
 1027              		.loc 9 280 29 view .LVU256
 1028 01c0 9022     		movs	r2, #144
 1029 01c2 3046     		mov	r0, r6
 1030              	.LVL66:
 280:../../libdaisy/src/hid/midi.h ****                     event_q_.Write(incoming_message_);
 1031              		.loc 9 280 29 view .LVU257
 1032 01c4 FFF7FEFF 		bl	memcpy
 1033              	.LVL67:
 1034              	.LBB270:
 1035              	.LBI270:
  44:../../libdaisy/src/util/ringbuffer.h ****     {
 1036              		.loc 13 44 17 is_stmt 1 view .LVU258
 1037              	.L55:
 1038              	.LBB271:
  46:../../libdaisy/src/util/ringbuffer.h ****             ;
 1039              		.loc 13 46 24 view .LVU259
 1040              	.LBB272:
 1041              	.LBI272:
  30:../../libdaisy/src/util/ringbuffer.h ****     {
 1042              		.loc 13 30 19 view .LVU260
 1043              	.LBB273:
  32:../../libdaisy/src/util/ringbuffer.h ****     }
 1044              		.loc 13 32 17 is_stmt 0 view .LVU261
 1045 01c8 D5F89830 		ldr	r3, [r5, #152]
  32:../../libdaisy/src/util/ringbuffer.h ****     }
 1046              		.loc 13 32 29 view .LVU262
 1047 01cc D5F89C20 		ldr	r2, [r5, #156]
 1048              	.LVL68:
  32:../../libdaisy/src/util/ringbuffer.h ****     }
 1049              		.loc 13 32 40 view .LVU263
 1050 01d0 013B     		subs	r3, r3, #1
 1051 01d2 9B1A     		subs	r3, r3, r2
  32:../../libdaisy/src/util/ringbuffer.h ****     }
 1052              		.loc 13 32 47 view .LVU264
 1053 01d4 DBB2     		uxtb	r3, r3
 1054              	.LBE273:
 1055              	.LBE272:
  46:../../libdaisy/src/util/ringbuffer.h ****             ;
 1056              		.loc 13 46 24 view .LVU265
 1057 01d6 002B     		cmp	r3, #0
 1058 01d8 F6D0     		beq	.L55
ARM GAS  /var/folders/0z/b9p8b05s1kb5msq549c5__rh0000gn/T//cc8CuGSI.s 			page 43


 1059              	.LVL69:
  46:../../libdaisy/src/util/ringbuffer.h ****             ;
 1060              		.loc 13 46 24 view .LVU266
 1061 01da 9022     		movs	r2, #144
 1062 01dc 3146     		mov	r1, r6
 1063 01de 0DEB0200 		add	r0, sp, r2
 1064 01e2 FFF7FEFF 		bl	memcpy
 1065              	.LVL70:
 1066              	.LBB274:
 1067              	.LBI274:
  54:../../libdaisy/src/util/ringbuffer.h ****     {
 1068              		.loc 13 54 17 is_stmt 1 view .LVU267
 1069              	.LBB275:
  56:../../libdaisy/src/util/ringbuffer.h ****         buffer_[w] = v;
 1070              		.loc 13 56 16 is_stmt 0 view .LVU268
 1071 01e6 D5F89C60 		ldr	r6, [r5, #156]
 1072              	.LVL71:
  57:../../libdaisy/src/util/ringbuffer.h ****         write_ptr_ = (w + 1) % size;
 1073              		.loc 13 57 9 view .LVU269
 1074 01ea 24A9     		add	r1, sp, #144
 1075 01ec 9022     		movs	r2, #144
 1076 01ee 06EBC600 		add	r0, r6, r6, lsl #3
 1077              		.loc 13 58 25 view .LVU270
 1078 01f2 0136     		adds	r6, r6, #1
 1079              	.LVL72:
  57:../../libdaisy/src/util/ringbuffer.h ****         write_ptr_ = (w + 1) % size;
 1080              		.loc 13 57 9 view .LVU271
 1081 01f4 04EB0010 		add	r0, r4, r0, lsl #4
 1082              		.loc 13 58 30 view .LVU272
 1083 01f8 F6B2     		uxtb	r6, r6
 1084              	.LVL73:
  57:../../libdaisy/src/util/ringbuffer.h ****         write_ptr_ = (w + 1) % size;
 1085              		.loc 13 57 9 view .LVU273
 1086 01fa 9830     		adds	r0, r0, #152
 1087 01fc FFF7FEFF 		bl	memcpy
 1088              	.LVL74:
 1089              		.loc 13 58 20 view .LVU274
 1090 0200 C5F89C60 		str	r6, [r5, #156]
 1091              	.LVL75:
 1092              		.loc 13 58 20 view .LVU275
 1093              	.LBE275:
 1094              	.LBE274:
 1095              	.LBE271:
 1096              	.LBE270:
 1097 0204 10E7     		b	.L33
 1098              	.LVL76:
 1099              	.L49:
 237:../../libdaisy/src/hid/midi.h ****                     }
 1100              		.loc 9 237 33 view .LVU276
 1101 0206 0223     		movs	r3, #2
 1102 0208 0371     		strb	r3, [r0, #4]
 1103 020a 5EE7     		b	.L51
 1104              	.LVL77:
 1105              	.L86:
 266:../../libdaisy/src/hid/midi.h ****                     }
 1106              		.loc 9 266 66 view .LVU277
 1107 020c 85F8A430 		strb	r3, [r5, #164]
ARM GAS  /var/folders/0z/b9p8b05s1kb5msq549c5__rh0000gn/T//cc8CuGSI.s 			page 44


 266:../../libdaisy/src/hid/midi.h ****                     }
 1108              		.loc 9 266 48 view .LVU278
 1109 0210 0372     		strb	r3, [r0, #8]
 1110 0212 A6E7     		b	.L52
 1111              	.LVL78:
 1112              	.L45:
 204:../../libdaisy/src/hid/midi.h ****                                 {
 1113              		.loc 9 204 38 view .LVU279
 1114 0214 4B07     		lsls	r3, r1, #29
 1115 0216 7FF507AF 		bpl	.L33
 1116 021a 6E46     		mov	r6, sp
 206:../../libdaisy/src/hid/midi.h ****                                     event_q_.Write(incoming_message_);
 1117              		.loc 9 206 45 view .LVU280
 1118 021c 2071     		strb	r0, [r4, #4]
 1119              	.LVL79:
 206:../../libdaisy/src/hid/midi.h ****                                     event_q_.Write(incoming_message_);
 1120              		.loc 9 206 45 view .LVU281
 1121 021e 9022     		movs	r2, #144
 1122 0220 04F10801 		add	r1, r4, #8
 1123              	.LVL80:
 206:../../libdaisy/src/hid/midi.h ****                                     event_q_.Write(incoming_message_);
 1124              		.loc 9 206 45 view .LVU282
 1125 0224 3046     		mov	r0, r6
 1126 0226 FFF7FEFF 		bl	memcpy
 1127              	.LVL81:
 1128              	.LBB276:
 1129              	.LBI276:
  44:../../libdaisy/src/util/ringbuffer.h ****     {
 1130              		.loc 13 44 17 is_stmt 1 view .LVU283
 1131              	.L46:
 1132              	.LBB277:
  46:../../libdaisy/src/util/ringbuffer.h ****             ;
 1133              		.loc 13 46 24 view .LVU284
 1134              	.LBB278:
 1135              	.LBI278:
  30:../../libdaisy/src/util/ringbuffer.h ****     {
 1136              		.loc 13 30 19 view .LVU285
 1137              	.LBB279:
  32:../../libdaisy/src/util/ringbuffer.h ****     }
 1138              		.loc 13 32 17 is_stmt 0 view .LVU286
 1139 022a D5F89830 		ldr	r3, [r5, #152]
  32:../../libdaisy/src/util/ringbuffer.h ****     }
 1140              		.loc 13 32 29 view .LVU287
 1141 022e D5F89C20 		ldr	r2, [r5, #156]
 1142              	.LVL82:
  32:../../libdaisy/src/util/ringbuffer.h ****     }
 1143              		.loc 13 32 40 view .LVU288
 1144 0232 013B     		subs	r3, r3, #1
 1145 0234 9B1A     		subs	r3, r3, r2
  32:../../libdaisy/src/util/ringbuffer.h ****     }
 1146              		.loc 13 32 47 view .LVU289
 1147 0236 DBB2     		uxtb	r3, r3
 1148              	.LBE279:
 1149              	.LBE278:
  46:../../libdaisy/src/util/ringbuffer.h ****             ;
 1150              		.loc 13 46 24 view .LVU290
 1151 0238 002B     		cmp	r3, #0
ARM GAS  /var/folders/0z/b9p8b05s1kb5msq549c5__rh0000gn/T//cc8CuGSI.s 			page 45


 1152 023a F6D0     		beq	.L46
 1153              	.LVL83:
 1154              	.L82:
  46:../../libdaisy/src/util/ringbuffer.h ****             ;
 1155              		.loc 13 46 24 view .LVU291
 1156 023c 9022     		movs	r2, #144
 1157 023e 3146     		mov	r1, r6
 1158 0240 0DEB0200 		add	r0, sp, r2
 1159 0244 FFF7FEFF 		bl	memcpy
 1160              	.LVL84:
 1161              	.LBB280:
 1162              	.LBI280:
  54:../../libdaisy/src/util/ringbuffer.h ****     {
 1163              		.loc 13 54 17 is_stmt 1 view .LVU292
 1164              	.LBB281:
  56:../../libdaisy/src/util/ringbuffer.h ****         buffer_[w] = v;
 1165              		.loc 13 56 16 is_stmt 0 view .LVU293
 1166 0248 D5F89C60 		ldr	r6, [r5, #156]
 1167              	.LVL85:
  57:../../libdaisy/src/util/ringbuffer.h ****         write_ptr_ = (w + 1) % size;
 1168              		.loc 13 57 9 view .LVU294
 1169 024c 24A9     		add	r1, sp, #144
 1170 024e 9022     		movs	r2, #144
 1171 0250 06EBC600 		add	r0, r6, r6, lsl #3
 1172 0254 04EB0010 		add	r0, r4, r0, lsl #4
 1173 0258 9830     		adds	r0, r0, #152
 1174 025a FFF7FEFF 		bl	memcpy
 1175              	.LVL86:
 1176              		.loc 13 58 25 view .LVU295
 1177 025e 731C     		adds	r3, r6, #1
 1178              		.loc 13 58 30 view .LVU296
 1179 0260 DBB2     		uxtb	r3, r3
 1180              		.loc 13 58 20 view .LVU297
 1181 0262 C5F89C30 		str	r3, [r5, #156]
 1182              	.LVL87:
 1183              		.loc 13 58 20 view .LVU298
 1184              	.LBE281:
 1185              	.LBE280:
 1186              	.LBE277:
 1187              	.LBE276:
 1188 0266 DFE6     		b	.L33
 1189              	.LVL88:
 1190              	.L85:
 181:../../libdaisy/src/hid/midi.h ****                                 running_status_        = SystemRealTime;
 1191              		.loc 9 181 56 view .LVU299
 1192 0268 0822     		movs	r2, #8
 1193 026a 6E46     		mov	r6, sp
 1194 026c 2272     		strb	r2, [r4, #8]
 1195 026e 3046     		mov	r0, r6
 182:../../libdaisy/src/hid/midi.h ****                                 incoming_message_.srt_type
 1196              		.loc 9 182 56 view .LVU300
 1197 0270 85F8A420 		strb	r2, [r5, #164]
 185:../../libdaisy/src/hid/midi.h **** 
 1198              		.loc 9 185 46 view .LVU301
 1199 0274 95F8BA20 		ldrb	r2, [r5, #186]	@ zero_extendqisi2
 188:../../libdaisy/src/hid/midi.h ****                                 event_q_.Write(incoming_message_);
 1200              		.loc 9 188 41 view .LVU302
ARM GAS  /var/folders/0z/b9p8b05s1kb5msq549c5__rh0000gn/T//cc8CuGSI.s 			page 46


 1201 0278 2371     		strb	r3, [r4, #4]
 1202              	.LVL89:
 185:../../libdaisy/src/hid/midi.h **** 
 1203              		.loc 9 185 46 view .LVU303
 1204 027a 1140     		ands	r1, r1, r2
 1205              	.LVL90:
 185:../../libdaisy/src/hid/midi.h **** 
 1206              		.loc 9 185 46 view .LVU304
 1207 027c 9022     		movs	r2, #144
 184:../../libdaisy/src/hid/midi.h ****                                         byte & kSystemRealTimeMask);
 1208              		.loc 9 184 37 view .LVU305
 1209 027e 84F89410 		strb	r1, [r4, #148]
 1210 0282 04F10801 		add	r1, r4, #8
 1211 0286 FFF7FEFF 		bl	memcpy
 1212              	.LVL91:
 1213              	.LBB282:
 1214              	.LBI282:
  44:../../libdaisy/src/util/ringbuffer.h ****     {
 1215              		.loc 13 44 17 is_stmt 1 view .LVU306
 1216              	.L44:
 1217              	.LBB283:
  46:../../libdaisy/src/util/ringbuffer.h ****             ;
 1218              		.loc 13 46 24 view .LVU307
 1219              	.LBB284:
 1220              	.LBI284:
  30:../../libdaisy/src/util/ringbuffer.h ****     {
 1221              		.loc 13 30 19 view .LVU308
 1222              	.LBB285:
  32:../../libdaisy/src/util/ringbuffer.h ****     }
 1223              		.loc 13 32 17 is_stmt 0 view .LVU309
 1224 028a D5F89830 		ldr	r3, [r5, #152]
  32:../../libdaisy/src/util/ringbuffer.h ****     }
 1225              		.loc 13 32 29 view .LVU310
 1226 028e D5F89C20 		ldr	r2, [r5, #156]
 1227              	.LVL92:
  32:../../libdaisy/src/util/ringbuffer.h ****     }
 1228              		.loc 13 32 40 view .LVU311
 1229 0292 013B     		subs	r3, r3, #1
 1230 0294 9B1A     		subs	r3, r3, r2
  32:../../libdaisy/src/util/ringbuffer.h ****     }
 1231              		.loc 13 32 47 view .LVU312
 1232 0296 DBB2     		uxtb	r3, r3
 1233              	.LBE285:
 1234              	.LBE284:
  46:../../libdaisy/src/util/ringbuffer.h ****             ;
 1235              		.loc 13 46 24 view .LVU313
 1236 0298 002B     		cmp	r3, #0
 1237 029a F6D0     		beq	.L44
 1238 029c CEE7     		b	.L82
 1239              	.LBE283:
 1240              	.LBE282:
 1241              		.cfi_endproc
 1242              	.LFE4677:
 1244 029e 00BF     		.section	.text.startup.main,"ax",%progbits
 1245              		.align	1
 1246              		.p2align 2,,3
 1247              		.global	main
ARM GAS  /var/folders/0z/b9p8b05s1kb5msq549c5__rh0000gn/T//cc8CuGSI.s 			page 47


 1248              		.syntax unified
 1249              		.thumb
 1250              		.thumb_func
 1251              		.fpu fpv5-d16
 1253              	main:
 1254              	.LFB4247:
  58:DrumModule.cpp **** 
  59:DrumModule.cpp **** 
  60:DrumModule.cpp **** int main(void)
  61:DrumModule.cpp **** {
 1255              		.loc 10 61 1 is_stmt 1 view -0
 1256              		.cfi_startproc
 1257              		@ args = 0, pretend = 0, frame = 144
 1258              		@ frame_needed = 0, uses_anonymous_args = 0
  62:DrumModule.cpp ****     // Configure and Initialize the Daisy Seed
  63:DrumModule.cpp ****     // These are separate to allow reconfiguration of any of the internal
  64:DrumModule.cpp ****     // components before initialization.
  65:DrumModule.cpp ****     hardware.Configure();
 1259              		.loc 10 65 5 view .LVU315
  61:DrumModule.cpp ****     // Configure and Initialize the Daisy Seed
 1260              		.loc 10 61 1 is_stmt 0 view .LVU316
 1261 0000 F0B5     		push	{r4, r5, r6, r7, lr}
 1262              		.cfi_def_cfa_offset 20
 1263              		.cfi_offset 4, -20
 1264              		.cfi_offset 5, -16
 1265              		.cfi_offset 6, -12
 1266              		.cfi_offset 7, -8
 1267              		.cfi_offset 14, -4
 1268              		.loc 10 65 23 view .LVU317
 1269 0002 4648     		ldr	r0, .L102
 1270              	.LBB319:
 1271              	.LBB320:
  44:../../DaisySP/Source/Synthesis/oscillator.h ****         sr_recip_  = 1.0f / sample_rate;
 1272              		.loc 8 44 20 view .LVU318
 1273 0004 464D     		ldr	r5, .L102+4
 1274 0006 474C     		ldr	r4, .L102+8
 1275              	.LBE320:
 1276              	.LBE319:
  61:DrumModule.cpp ****     // Configure and Initialize the Daisy Seed
 1277              		.loc 10 61 1 view .LVU319
 1278 0008 2DED028B 		vpush.64	{d8}
 1279              		.cfi_def_cfa_offset 28
 1280              		.cfi_offset 80, -28
 1281              		.cfi_offset 81, -24
 1282 000c C5B0     		sub	sp, sp, #276
 1283              		.cfi_def_cfa_offset 304
 1284              	.LBB325:
 1285              	.LBB321:
  45:../../DaisySP/Source/Synthesis/oscillator.h ****         freq_      = 100.0f;
 1286              		.loc 8 45 27 view .LVU320
 1287 000e B7EE008A 		vmov.f32	s16, #1.0e+0
 1288              	.LBE321:
 1289              	.LBE325:
 1290              		.loc 10 65 23 view .LVU321
 1291 0012 FFF7FEFF 		bl	_ZN5daisy9DaisySeed9ConfigureEv
 1292              	.LVL93:
  66:DrumModule.cpp ****     hardware.Init();
ARM GAS  /var/folders/0z/b9p8b05s1kb5msq549c5__rh0000gn/T//cc8CuGSI.s 			page 48


 1293              		.loc 10 66 5 is_stmt 1 view .LVU322
 1294              		.loc 10 66 18 is_stmt 0 view .LVU323
 1295 0016 0021     		movs	r1, #0
 1296 0018 4048     		ldr	r0, .L102
 1297 001a A4F51047 		sub	r7, r4, #36864
 1298 001e FFF7FEFF 		bl	_ZN5daisy9DaisySeed4InitEb
 1299              	.LVL94:
  67:DrumModule.cpp **** 
  68:DrumModule.cpp ****     InitMidi();
 1300              		.loc 10 68 5 is_stmt 1 view .LVU324
 1301 0022 20AE     		add	r6, sp, #128
 1302              		.loc 10 68 13 is_stmt 0 view .LVU325
 1303 0024 FFF7FEFF 		bl	_Z8InitMidiv
 1304              	.LVL95:
  69:DrumModule.cpp **** 
  70:DrumModule.cpp ****     //How many samples we'll output per second
  71:DrumModule.cpp ****     float samplerate = hardware.AudioSampleRate();
 1305              		.loc 10 71 5 is_stmt 1 view .LVU326
 1306              		.loc 10 71 48 is_stmt 0 view .LVU327
 1307 0028 3C48     		ldr	r0, .L102
 1308 002a FFF7FEFF 		bl	_ZN5daisy9DaisySeed15AudioSampleRateEv
 1309              	.LVL96:
 1310 002e F0EE407A 		vmov.f32	s15, s0
 1311              	.LVL97:
  72:DrumModule.cpp **** 
  73:DrumModule.cpp ****     //Set up oscillator
  74:DrumModule.cpp ****     osc.Init(samplerate);
 1312              		.loc 10 74 5 is_stmt 1 view .LVU328
 1313              	.LBB326:
 1314              	.LBI319:
  42:../../DaisySP/Source/Synthesis/oscillator.h ****     {
 1315              		.loc 8 42 10 view .LVU329
 1316              	.LBB322:
  44:../../DaisySP/Source/Synthesis/oscillator.h ****         sr_recip_  = 1.0f / sample_rate;
 1317              		.loc 8 44 9 view .LVU330
  46:../../DaisySP/Source/Synthesis/oscillator.h ****         amp_       = 0.5f;
 1318              		.loc 8 46 20 is_stmt 0 view .LVU331
 1319 0032 9FED3D7A 		vldr.32	s14, .L102+12
  47:../../DaisySP/Source/Synthesis/oscillator.h ****         phase_     = 0.0f;
 1320              		.loc 8 47 20 view .LVU332
 1321 0036 4FF07C52 		mov	r2, #1056964608
  48:../../DaisySP/Source/Synthesis/oscillator.h ****         phase_inc_ = CalcPhaseInc(freq_);
 1322              		.loc 8 48 20 view .LVU333
 1323 003a 0023     		movs	r3, #0
  49:../../DaisySP/Source/Synthesis/oscillator.h ****         waveform_  = WAVE_SIN;
 1324              		.loc 8 49 34 view .LVU334
 1325 003c 2846     		mov	r0, r5
  45:../../DaisySP/Source/Synthesis/oscillator.h ****         freq_      = 100.0f;
 1326              		.loc 8 45 27 view .LVU335
 1327 003e C8EE276A 		vdiv.f32	s13, s16, s15
  44:../../DaisySP/Source/Synthesis/oscillator.h ****         sr_recip_  = 1.0f / sample_rate;
 1328              		.loc 8 44 20 view .LVU336
 1329 0042 C5ED037A 		vstr.32	s15, [r5, #12]
  45:../../DaisySP/Source/Synthesis/oscillator.h ****         freq_      = 100.0f;
 1330              		.loc 8 45 9 is_stmt 1 view .LVU337
  46:../../DaisySP/Source/Synthesis/oscillator.h ****         amp_       = 0.5f;
 1331              		.loc 8 46 20 is_stmt 0 view .LVU338
ARM GAS  /var/folders/0z/b9p8b05s1kb5msq549c5__rh0000gn/T//cc8CuGSI.s 			page 49


 1332 0046 85ED027A 		vstr.32	s14, [r5, #8]
  47:../../DaisySP/Source/Synthesis/oscillator.h ****         phase_     = 0.0f;
 1333              		.loc 8 47 20 view .LVU339
 1334 004a 6A60     		str	r2, [r5, #4]	@ float
  48:../../DaisySP/Source/Synthesis/oscillator.h ****         phase_inc_ = CalcPhaseInc(freq_);
 1335              		.loc 8 48 20 view .LVU340
 1336 004c 6B61     		str	r3, [r5, #20]	@ float
  49:../../DaisySP/Source/Synthesis/oscillator.h ****         waveform_  = WAVE_SIN;
 1337              		.loc 8 49 34 view .LVU341
 1338 004e B0EE470A 		vmov.f32	s0, s14
 1339              	.LVL98:
  45:../../DaisySP/Source/Synthesis/oscillator.h ****         freq_      = 100.0f;
 1340              		.loc 8 45 20 view .LVU342
 1341 0052 C5ED046A 		vstr.32	s13, [r5, #16]
  46:../../DaisySP/Source/Synthesis/oscillator.h ****         amp_       = 0.5f;
 1342              		.loc 8 46 9 is_stmt 1 view .LVU343
  47:../../DaisySP/Source/Synthesis/oscillator.h ****         phase_     = 0.0f;
 1343              		.loc 8 47 9 view .LVU344
  48:../../DaisySP/Source/Synthesis/oscillator.h ****         phase_inc_ = CalcPhaseInc(freq_);
 1344              		.loc 8 48 9 view .LVU345
  49:../../DaisySP/Source/Synthesis/oscillator.h ****         waveform_  = WAVE_SIN;
 1345              		.loc 8 49 9 view .LVU346
  49:../../DaisySP/Source/Synthesis/oscillator.h ****         waveform_  = WAVE_SIN;
 1346              		.loc 8 49 34 is_stmt 0 view .LVU347
 1347 0056 FFF7FEFF 		bl	_ZN7daisysp10Oscillator12CalcPhaseIncEf
 1348              	.LVL99:
  50:../../DaisySP/Source/Synthesis/oscillator.h ****         eoc_       = true;
 1349              		.loc 8 50 20 view .LVU348
 1350 005a 0023     		movs	r3, #0
  49:../../DaisySP/Source/Synthesis/oscillator.h ****         waveform_  = WAVE_SIN;
 1351              		.loc 8 49 34 view .LVU349
 1352 005c F0EE407A 		vmov.f32	s15, s0
 1353              	.LBE322:
 1354              	.LBE326:
 1355              	.LBB327:
 1356              	.LBB328:
  60:../../DaisySP/Source/Synthesis/oscillator.h ****         phase_inc_ = CalcPhaseInc(f);
 1357              		.loc 8 60 20 view .LVU350
 1358 0060 9FED320A 		vldr.32	s0, .L102+16
  61:../../DaisySP/Source/Synthesis/oscillator.h ****     }
 1359              		.loc 8 61 34 view .LVU351
 1360 0064 2846     		mov	r0, r5
 1361              	.LBE328:
 1362              	.LBE327:
 1363              	.LBB331:
 1364              	.LBB323:
  50:../../DaisySP/Source/Synthesis/oscillator.h ****         eoc_       = true;
 1365              		.loc 8 50 20 view .LVU352
 1366 0066 2B70     		strb	r3, [r5]
  52:../../DaisySP/Source/Synthesis/oscillator.h ****     }
 1367              		.loc 8 52 20 view .LVU353
 1368 0068 40F20113 		movw	r3, #257
 1369              	.LBE323:
 1370              	.LBE331:
 1371              	.LBB332:
 1372              	.LBB333:
 1373              		.loc 8 67 46 view .LVU354
ARM GAS  /var/folders/0z/b9p8b05s1kb5msq549c5__rh0000gn/T//cc8CuGSI.s 			page 50


 1374 006c 85ED018A 		vstr.32	s16, [r5, #4]
 1375              	.LBE333:
 1376              	.LBE332:
 1377              	.LBB335:
 1378              	.LBB324:
  52:../../DaisySP/Source/Synthesis/oscillator.h ****     }
 1379              		.loc 8 52 20 view .LVU355
 1380 0070 AB84     		strh	r3, [r5, #36]	@ movhi
  49:../../DaisySP/Source/Synthesis/oscillator.h ****         waveform_  = WAVE_SIN;
 1381              		.loc 8 49 20 view .LVU356
 1382 0072 C5ED067A 		vstr.32	s15, [r5, #24]
  50:../../DaisySP/Source/Synthesis/oscillator.h ****         eoc_       = true;
 1383              		.loc 8 50 9 is_stmt 1 view .LVU357
  51:../../DaisySP/Source/Synthesis/oscillator.h ****         eor_       = true;
 1384              		.loc 8 51 9 view .LVU358
  52:../../DaisySP/Source/Synthesis/oscillator.h ****     }
 1385              		.loc 8 52 9 view .LVU359
 1386              	.LVL100:
  52:../../DaisySP/Source/Synthesis/oscillator.h ****     }
 1387              		.loc 8 52 9 is_stmt 0 view .LVU360
 1388              	.LBE324:
 1389              	.LBE335:
  75:DrumModule.cpp ****     osc.SetWaveform(osc.WAVE_SIN);
 1390              		.loc 10 75 5 is_stmt 1 view .LVU361
  68:../../DaisySP/Source/Synthesis/oscillator.h ****     /** Sets the waveform to be synthesized by the Process() function.
  69:../../DaisySP/Source/Synthesis/oscillator.h ****     */
  70:../../DaisySP/Source/Synthesis/oscillator.h ****     inline void SetWaveform(const uint8_t wf)
  71:../../DaisySP/Source/Synthesis/oscillator.h ****     {
  72:../../DaisySP/Source/Synthesis/oscillator.h ****         waveform_ = wf < WAVE_LAST ? wf : WAVE_SIN;
 1391              		.loc 8 72 9 view .LVU362
  76:DrumModule.cpp ****     osc.SetAmp(1.f);
 1392              		.loc 10 76 5 view .LVU363
 1393              	.LBB336:
 1394              	.LBI332:
  67:../../DaisySP/Source/Synthesis/oscillator.h ****     /** Sets the waveform to be synthesized by the Process() function.
 1395              		.loc 8 67 17 view .LVU364
 1396              	.LBB334:
  67:../../DaisySP/Source/Synthesis/oscillator.h ****     /** Sets the waveform to be synthesized by the Process() function.
 1397              		.loc 8 67 41 view .LVU365
  67:../../DaisySP/Source/Synthesis/oscillator.h ****     /** Sets the waveform to be synthesized by the Process() function.
 1398              		.loc 8 67 41 is_stmt 0 view .LVU366
 1399              	.LBE334:
 1400              	.LBE336:
  77:DrumModule.cpp ****     osc.SetFreq(440);
 1401              		.loc 10 77 5 is_stmt 1 view .LVU367
 1402              	.LBB337:
 1403              	.LBI327:
  58:../../DaisySP/Source/Synthesis/oscillator.h ****     {
 1404              		.loc 8 58 17 view .LVU368
 1405              	.LBB329:
  60:../../DaisySP/Source/Synthesis/oscillator.h ****         phase_inc_ = CalcPhaseInc(f);
 1406              		.loc 8 60 9 view .LVU369
  61:../../DaisySP/Source/Synthesis/oscillator.h ****     }
 1407              		.loc 8 61 9 view .LVU370
  60:../../DaisySP/Source/Synthesis/oscillator.h ****         phase_inc_ = CalcPhaseInc(f);
 1408              		.loc 8 60 20 is_stmt 0 view .LVU371
 1409 0076 85ED020A 		vstr.32	s0, [r5, #8]
ARM GAS  /var/folders/0z/b9p8b05s1kb5msq549c5__rh0000gn/T//cc8CuGSI.s 			page 51


  61:../../DaisySP/Source/Synthesis/oscillator.h ****     }
 1410              		.loc 8 61 34 view .LVU372
 1411 007a FFF7FEFF 		bl	_ZN7daisysp10Oscillator12CalcPhaseIncEf
 1412              	.LVL101:
 1413              	.LBE329:
 1414              	.LBE337:
  78:DrumModule.cpp **** 
  79:DrumModule.cpp ****     //Start the adc
  80:DrumModule.cpp ****     //hardware.adc.Start();
  81:DrumModule.cpp **** 
  82:DrumModule.cpp ****     //Start calling the audio callback
  83:DrumModule.cpp ****     hardware.StartAudio(AudioCallback);
 1415              		.loc 10 83 24 view .LVU373
 1416 007e 2C49     		ldr	r1, .L102+20
 1417 0080 2648     		ldr	r0, .L102
 1418              	.LBB338:
 1419              	.LBB330:
  61:../../DaisySP/Source/Synthesis/oscillator.h ****     }
 1420              		.loc 8 61 20 view .LVU374
 1421 0082 85ED060A 		vstr.32	s0, [r5, #24]
 1422              	.LVL102:
  61:../../DaisySP/Source/Synthesis/oscillator.h ****     }
 1423              		.loc 8 61 20 view .LVU375
 1424              	.LBE330:
 1425              	.LBE338:
 1426              		.loc 10 83 5 is_stmt 1 view .LVU376
 1427              		.loc 10 83 24 is_stmt 0 view .LVU377
 1428 0086 FFF7FEFF 		bl	_ZN5daisy9DaisySeed10StartAudioEPFvPKfPfjE
 1429              	.LVL103:
 1430              	.L92:
  84:DrumModule.cpp **** 
  85:DrumModule.cpp ****     // Loop forever
  86:DrumModule.cpp ****     
  87:DrumModule.cpp ****     for(;;)
 1431              		.loc 10 87 5 is_stmt 1 view .LVU378
  88:DrumModule.cpp ****     {
  89:DrumModule.cpp ****         midi.Listen();
 1432              		.loc 10 89 9 view .LVU379
 1433              	.LBB339:
 1434              	.LBI339:
 109:../../libdaisy/src/hid/midi.h ****     {
 1435              		.loc 9 109 10 view .LVU380
 1436              	.LBB340:
 112:../../libdaisy/src/hid/midi.h ****         while(transport_.Readable())
 1437              		.loc 9 112 29 is_stmt 0 view .LVU381
 1438 008a FFF7FEFF 		bl	_ZN5daisy6System6GetNowEv
 1439              	.LVL104:
 1440 008e 0546     		mov	r5, r0
 1441              	.LVL105:
 112:../../libdaisy/src/hid/midi.h ****         while(transport_.Readable())
 1442              		.loc 9 112 29 view .LVU382
 1443 0090 07E0     		b	.L89
 1444              	.LVL106:
 1445              	.L100:
 115:../../libdaisy/src/hid/midi.h ****             Parse(transport_.Rx());
 1446              		.loc 9 115 24 view .LVU383
 1447 0092 C4F8A050 		str	r5, [r4, #160]
ARM GAS  /var/folders/0z/b9p8b05s1kb5msq549c5__rh0000gn/T//cc8CuGSI.s 			page 52


 1448              	.LVL107:
 1449              	.LBB341:
 1450              	.LBI341:
  62:../../libdaisy/src/hid/midi.h ****     inline bool    RxActive() { return uart_.RxActive(); }
 1451              		.loc 9 62 20 is_stmt 1 view .LVU384
 1452              	.LBB342:
  62:../../libdaisy/src/hid/midi.h ****     inline bool    RxActive() { return uart_.RxActive(); }
 1453              		.loc 9 62 27 view .LVU385
  62:../../libdaisy/src/hid/midi.h ****     inline bool    RxActive() { return uart_.RxActive(); }
 1454              		.loc 9 62 45 is_stmt 0 view .LVU386
 1455 0096 FFF7FEFF 		bl	_ZN5daisy11UartHandler5PopRxEv
 1456              	.LVL108:
  62:../../libdaisy/src/hid/midi.h ****     inline bool    RxActive() { return uart_.RxActive(); }
 1457              		.loc 9 62 45 view .LVU387
 1458 009a 0146     		mov	r1, r0
 1459              	.LBE342:
 1460              	.LBE341:
 116:../../libdaisy/src/hid/midi.h ****         }
 1461              		.loc 9 116 18 view .LVU388
 1462 009c 2548     		ldr	r0, .L102+24
 1463 009e FFF7FEFF 		bl	_ZN5daisy11MidiHandlerINS_17MidiUartTransportEE5ParseEh
 1464              	.LVL109:
 1465              	.L89:
 113:../../libdaisy/src/hid/midi.h ****         {
 1466              		.loc 9 113 34 is_stmt 1 view .LVU389
 1467              	.LBB344:
 1468              	.LBI344:
  61:../../libdaisy/src/hid/midi.h ****     inline uint8_t Rx() { return uart_.PopRx(); }
 1469              		.loc 9 61 20 view .LVU390
 1470              	.LBB345:
  61:../../libdaisy/src/hid/midi.h ****     inline uint8_t Rx() { return uart_.PopRx(); }
 1471              		.loc 9 61 33 view .LVU391
  61:../../libdaisy/src/hid/midi.h ****     inline uint8_t Rx() { return uart_.PopRx(); }
 1472              		.loc 9 61 54 is_stmt 0 view .LVU392
 1473 00a2 2548     		ldr	r0, .L102+28
 1474              	.LVL110:
  61:../../libdaisy/src/hid/midi.h ****     inline uint8_t Rx() { return uart_.PopRx(); }
 1475              		.loc 9 61 54 view .LVU393
 1476 00a4 FFF7FEFF 		bl	_ZN5daisy11UartHandler8ReadableEv
 1477              	.LVL111:
  61:../../libdaisy/src/hid/midi.h ****     inline uint8_t Rx() { return uart_.PopRx(); }
 1478              		.loc 9 61 54 view .LVU394
 1479 00a8 0346     		mov	r3, r0
 1480              	.LBE345:
 1481              	.LBE344:
 1482              	.LBB346:
 1483              	.LBB343:
  62:../../libdaisy/src/hid/midi.h ****     inline bool    RxActive() { return uart_.RxActive(); }
 1484              		.loc 9 62 45 view .LVU395
 1485 00aa 2348     		ldr	r0, .L102+28
 1486              	.LBE343:
 1487              	.LBE346:
 113:../../libdaisy/src/hid/midi.h ****         {
 1488              		.loc 9 113 34 view .LVU396
 1489 00ac 002B     		cmp	r3, #0
 1490 00ae F0D1     		bne	.L100
 1491              	.LVL112:
ARM GAS  /var/folders/0z/b9p8b05s1kb5msq549c5__rh0000gn/T//cc8CuGSI.s 			page 53


 1492              	.LBB347:
 1493              	.LBI347:
  63:../../libdaisy/src/hid/midi.h ****     inline void    FlushRx() { uart_.FlushRx(); }
 1494              		.loc 9 63 20 is_stmt 1 view .LVU397
 1495              	.LBB348:
  63:../../libdaisy/src/hid/midi.h ****     inline void    FlushRx() { uart_.FlushRx(); }
 1496              		.loc 9 63 33 view .LVU398
  63:../../libdaisy/src/hid/midi.h ****     inline void    FlushRx() { uart_.FlushRx(); }
 1497              		.loc 9 63 54 is_stmt 0 view .LVU399
 1498 00b0 2148     		ldr	r0, .L102+28
  63:../../libdaisy/src/hid/midi.h ****     inline void    FlushRx() { uart_.FlushRx(); }
 1499              		.loc 9 63 54 view .LVU400
 1500 00b2 FFF7FEFF 		bl	_ZN5daisy11UartHandler8RxActiveEv
 1501              	.LVL113:
  63:../../libdaisy/src/hid/midi.h ****     inline void    FlushRx() { uart_.FlushRx(); }
 1502              		.loc 9 63 54 view .LVU401
 1503              	.LBE348:
 1504              	.LBE347:
 122:../../libdaisy/src/hid/midi.h ****         {
 1505              		.loc 9 122 9 view .LVU402
 1506 00b6 0346     		mov	r3, r0
 1507 00b8 40B3     		cbz	r0, .L101
 1508              	.LVL114:
 1509              	.L90:
 122:../../libdaisy/src/hid/midi.h ****         {
 1510              		.loc 9 122 9 view .LVU403
 1511              	.LBE340:
 1512              	.LBE339:
  90:DrumModule.cpp ****         // Handle MIDI Events
  91:DrumModule.cpp ****         while(midi.HasEvents())
 1513              		.loc 10 91 9 is_stmt 1 view .LVU404
 1514              		.loc 10 91 29 view .LVU405
 1515              	.LBB358:
 1516              	.LBI358:
 133:../../libdaisy/src/hid/midi.h **** 
 1517              		.loc 9 133 10 view .LVU406
 1518              	.LBB359:
 1519              	.LBI359:
  36:../../libdaisy/src/util/ringbuffer.h **** 
 1520              		.loc 13 36 19 view .LVU407
 1521              	.LBB360:
  36:../../libdaisy/src/util/ringbuffer.h **** 
 1522              		.loc 13 36 46 is_stmt 0 view .LVU408
 1523 00ba D4F89C30 		ldr	r3, [r4, #156]
  36:../../libdaisy/src/util/ringbuffer.h **** 
 1524              		.loc 13 36 59 view .LVU409
 1525 00be D4F89820 		ldr	r2, [r4, #152]
 1526              	.LVL115:
  36:../../libdaisy/src/util/ringbuffer.h **** 
 1527              		.loc 13 36 57 view .LVU410
 1528 00c2 9B1A     		subs	r3, r3, r2
  36:../../libdaisy/src/util/ringbuffer.h **** 
 1529              		.loc 13 36 72 view .LVU411
 1530 00c4 DBB2     		uxtb	r3, r3
 1531              	.LBE360:
 1532              	.LBE359:
 1533              	.LBE358:
ARM GAS  /var/folders/0z/b9p8b05s1kb5msq549c5__rh0000gn/T//cc8CuGSI.s 			page 54


 1534              		.loc 10 91 29 view .LVU412
 1535 00c6 002B     		cmp	r3, #0
 1536 00c8 DFD0     		beq	.L92
 1537              	.L93:
 1538              	.LBB362:
 1539              	.LBB363:
 1540              	.LBB364:
  59:../../libdaisy/src/util/ringbuffer.h ****     }
  60:../../libdaisy/src/util/ringbuffer.h **** 
  61:../../libdaisy/src/util/ringbuffer.h ****     /** Reads the first available element from the ring buffer
  62:../../libdaisy/src/util/ringbuffer.h ****     \return read value
  63:../../libdaisy/src/util/ringbuffer.h ****      */
  64:../../libdaisy/src/util/ringbuffer.h ****     inline T Read()
  65:../../libdaisy/src/util/ringbuffer.h ****     {
  66:../../libdaisy/src/util/ringbuffer.h ****         while(!readable())
 1541              		.loc 13 66 24 is_stmt 1 view .LVU413
 1542              	.LVL116:
 1543              	.LBB365:
 1544              	.LBI365:
  36:../../libdaisy/src/util/ringbuffer.h **** 
 1545              		.loc 13 36 19 view .LVU414
 1546              	.LBB366:
  36:../../libdaisy/src/util/ringbuffer.h **** 
 1547              		.loc 13 36 46 is_stmt 0 view .LVU415
 1548 00ca D4F89C30 		ldr	r3, [r4, #156]
  36:../../libdaisy/src/util/ringbuffer.h **** 
 1549              		.loc 13 36 59 view .LVU416
 1550 00ce D4F89820 		ldr	r2, [r4, #152]
 1551              	.LVL117:
  36:../../libdaisy/src/util/ringbuffer.h **** 
 1552              		.loc 13 36 57 view .LVU417
 1553 00d2 9B1A     		subs	r3, r3, r2
  36:../../libdaisy/src/util/ringbuffer.h **** 
 1554              		.loc 13 36 72 view .LVU418
 1555 00d4 DBB2     		uxtb	r3, r3
 1556              	.LBE366:
 1557              	.LBE365:
 1558              		.loc 13 66 24 view .LVU419
 1559 00d6 002B     		cmp	r3, #0
 1560 00d8 F7D0     		beq	.L93
 1561              	.LVL118:
 1562              	.LBB367:
 1563              	.LBI367:
  67:../../libdaisy/src/util/ringbuffer.h ****             ;
  68:../../libdaisy/src/util/ringbuffer.h ****         return ImmediateRead();
  69:../../libdaisy/src/util/ringbuffer.h ****     }
  70:../../libdaisy/src/util/ringbuffer.h **** 
  71:../../libdaisy/src/util/ringbuffer.h ****     /** Reads next element from ring buffer immediately
  72:../../libdaisy/src/util/ringbuffer.h ****     \return read value
  73:../../libdaisy/src/util/ringbuffer.h ****      */
  74:../../libdaisy/src/util/ringbuffer.h ****     inline T ImmediateRead()
 1564              		.loc 13 74 14 is_stmt 1 view .LVU420
 1565              	.LBB368:
  75:../../libdaisy/src/util/ringbuffer.h ****     {
  76:../../libdaisy/src/util/ringbuffer.h ****         size_t r      = read_ptr_;
 1566              		.loc 13 76 16 is_stmt 0 view .LVU421
 1567 00da D4F89850 		ldr	r5, [r4, #152]
ARM GAS  /var/folders/0z/b9p8b05s1kb5msq549c5__rh0000gn/T//cc8CuGSI.s 			page 55


 1568              	.LVL119:
  77:../../libdaisy/src/util/ringbuffer.h ****         T      result = buffer_[r];
 1569              		.loc 13 77 16 view .LVU422
 1570 00de 9022     		movs	r2, #144
 1571              	.LVL120:
 1572              		.loc 13 77 16 view .LVU423
 1573 00e0 3046     		mov	r0, r6
 1574 00e2 05EBC501 		add	r1, r5, r5, lsl #3
  78:../../libdaisy/src/util/ringbuffer.h ****         read_ptr_     = (r + 1) % size;
 1575              		.loc 13 78 28 view .LVU424
 1576 00e6 0135     		adds	r5, r5, #1
 1577              	.LVL121:
  77:../../libdaisy/src/util/ringbuffer.h ****         T      result = buffer_[r];
 1578              		.loc 13 77 16 view .LVU425
 1579 00e8 07EB0111 		add	r1, r7, r1, lsl #4
 1580              		.loc 13 78 33 view .LVU426
 1581 00ec EDB2     		uxtb	r5, r5
  77:../../libdaisy/src/util/ringbuffer.h ****         T      result = buffer_[r];
 1582              		.loc 13 77 16 view .LVU427
 1583 00ee 9831     		adds	r1, r1, #152
 1584 00f0 FFF7FEFF 		bl	memcpy
 1585              	.LVL122:
  77:../../libdaisy/src/util/ringbuffer.h ****         T      result = buffer_[r];
 1586              		.loc 13 77 16 view .LVU428
 1587              	.LBE368:
 1588              	.LBE367:
 1589              	.LBE364:
 1590              	.LBE363:
 1591              	.LBE362:
  92:DrumModule.cpp ****         {
  93:DrumModule.cpp ****             HandleMidiMessage(midi.PopEvent());
 1592              		.loc 10 93 30 view .LVU429
 1593 00f4 24A9     		add	r1, sp, #144
 1594 00f6 8022     		movs	r2, #128
 1595 00f8 6846     		mov	r0, sp
 1596              	.LBB373:
 1597              	.LBB372:
 1598              	.LBB371:
 1599              	.LBB370:
 1600              	.LBB369:
 1601              		.loc 13 78 23 view .LVU430
 1602 00fa C4F89850 		str	r5, [r4, #152]
 1603              	.LVL123:
 1604              		.loc 13 78 23 view .LVU431
 1605              	.LBE369:
 1606              	.LBE370:
 1607              	.LBE371:
 1608              	.LBE372:
 1609              	.LBE373:
 1610              		.loc 10 93 30 view .LVU432
 1611 00fe FFF7FEFF 		bl	memcpy
 1612              	.LVL124:
 1613 0102 96E80F00 		ldm	r6, {r0, r1, r2, r3}
 1614 0106 FFF7FEFF 		bl	_Z17HandleMidiMessageN5daisy9MidiEventE
 1615              	.LVL125:
  91:DrumModule.cpp ****         {
 1616              		.loc 10 91 9 is_stmt 1 view .LVU433
ARM GAS  /var/folders/0z/b9p8b05s1kb5msq549c5__rh0000gn/T//cc8CuGSI.s 			page 56


  91:DrumModule.cpp ****         {
 1617              		.loc 10 91 29 view .LVU434
 1618              	.LBB374:
 133:../../libdaisy/src/hid/midi.h **** 
 1619              		.loc 9 133 10 view .LVU435
 1620              	.LBB361:
  36:../../libdaisy/src/util/ringbuffer.h **** 
 1621              		.loc 13 36 19 view .LVU436
 1622 010a D6E7     		b	.L90
 1623              	.LVL126:
 1624              	.L101:
  36:../../libdaisy/src/util/ringbuffer.h **** 
 1625              		.loc 13 36 19 is_stmt 0 view .LVU437
 1626              	.LBE361:
 1627              	.LBE374:
 1628              	.LBB375:
 1629              	.LBB357:
 1630              	.LBB349:
 1631              	.LBB350:
  64:../../libdaisy/src/hid/midi.h ****     inline void    Tx(uint8_t* buff, size_t size) { uart_.PollTx(buff, size); }
 1632              		.loc 9 64 45 view .LVU438
 1633 010c 0A48     		ldr	r0, .L102+28
 1634              	.LBE350:
 1635              	.LBE349:
 124:../../libdaisy/src/hid/midi.h ****             transport_.FlushRx();
 1636              		.loc 9 124 21 view .LVU439
 1637 010e 3B71     		strb	r3, [r7, #4]
 1638              	.LVL127:
 1639              	.LBB352:
 1640              	.LBI349:
  64:../../libdaisy/src/hid/midi.h ****     inline void    Tx(uint8_t* buff, size_t size) { uart_.PollTx(buff, size); }
 1641              		.loc 9 64 20 is_stmt 1 view .LVU440
 1642              	.LBB351:
  64:../../libdaisy/src/hid/midi.h ****     inline void    Tx(uint8_t* buff, size_t size) { uart_.PollTx(buff, size); }
 1643              		.loc 9 64 32 view .LVU441
  64:../../libdaisy/src/hid/midi.h ****     inline void    Tx(uint8_t* buff, size_t size) { uart_.PollTx(buff, size); }
 1644              		.loc 9 64 45 is_stmt 0 view .LVU442
 1645 0110 FFF7FEFF 		bl	_ZN5daisy11UartHandler7FlushRxEv
 1646              	.LVL128:
  64:../../libdaisy/src/hid/midi.h ****     inline void    Tx(uint8_t* buff, size_t size) { uart_.PollTx(buff, size); }
 1647              		.loc 9 64 45 view .LVU443
 1648              	.LBE351:
 1649              	.LBE352:
 1650              	.LBB353:
 1651              	.LBI353:
 106:../../libdaisy/src/hid/midi.h **** 
 1652              		.loc 9 106 10 is_stmt 1 view .LVU444
 1653              	.LBB354:
 1654              	.LBB355:
 1655              	.LBI355:
  60:../../libdaisy/src/hid/midi.h ****     inline size_t  Readable() { return uart_.Readable(); }
 1656              		.loc 9 60 20 view .LVU445
 1657              	.LBB356:
  60:../../libdaisy/src/hid/midi.h ****     inline size_t  Readable() { return uart_.Readable(); }
 1658              		.loc 9 60 32 view .LVU446
  60:../../libdaisy/src/hid/midi.h ****     inline size_t  Readable() { return uart_.Readable(); }
 1659              		.loc 9 60 45 is_stmt 0 view .LVU447
ARM GAS  /var/folders/0z/b9p8b05s1kb5msq549c5__rh0000gn/T//cc8CuGSI.s 			page 57


 1660 0114 0848     		ldr	r0, .L102+28
 1661              	.LVL129:
  60:../../libdaisy/src/hid/midi.h ****     inline size_t  Readable() { return uart_.Readable(); }
 1662              		.loc 9 60 45 view .LVU448
 1663 0116 FFF7FEFF 		bl	_ZN5daisy11UartHandler7StartRxEv
 1664              	.LVL130:
  60:../../libdaisy/src/hid/midi.h ****     inline size_t  Readable() { return uart_.Readable(); }
 1665              		.loc 9 60 45 view .LVU449
 1666              	.LBE356:
 1667              	.LBE355:
 106:../../libdaisy/src/hid/midi.h **** 
 1668              		.loc 9 106 49 view .LVU450
 1669 011a CEE7     		b	.L90
 1670              	.L103:
 1671              		.align	2
 1672              	.L102:
 1673 011c 00000000 		.word	.LANCHOR2
 1674 0120 00000000 		.word	.LANCHOR0
 1675 0124 00900000 		.word	midi+36864
 1676 0128 0000C842 		.word	1120403456
 1677 012c 0000DC43 		.word	1138491392
 1678 0130 00000000 		.word	_Z13AudioCallbackPKfPfj
 1679 0134 00000000 		.word	midi
 1680 0138 B0900000 		.word	midi+37040
 1681              	.LBE354:
 1682              	.LBE353:
 1683              	.LBE357:
 1684              	.LBE375:
 1685              		.cfi_endproc
 1686              	.LFE4247:
 1688              		.section	.text.startup._GLOBAL__sub_I_hardware,"ax",%progbits
 1689              		.align	1
 1690              		.p2align 2,,3
 1691              		.syntax unified
 1692              		.thumb
 1693              		.thumb_func
 1694              		.fpu fpv5-d16
 1696              	_GLOBAL__sub_I_hardware:
 1697              	.LFB4826:
  94:DrumModule.cpp ****         }
  95:DrumModule.cpp ****     };
  96:DrumModule.cpp **** }
 1698              		.loc 10 96 1 is_stmt 1 view -0
 1699              		.cfi_startproc
 1700              		@ args = 0, pretend = 0, frame = 0
 1701              		@ frame_needed = 0, uses_anonymous_args = 0
 1702              	.LBB413:
 1703              	.LBI413:
 1704              		.loc 10 96 1 view .LVU452
 1705              	.LVL131:
 1706              	.LBB414:
 1707              	.LBB415:
 1708              	.LBI415:
  21:../../libdaisy/src/daisy_seed.h ****     ~DaisySeed() {}
 1709              		.loc 2 21 5 view .LVU453
 1710              	.LBB416:
 1711              	.LBB417:
ARM GAS  /var/folders/0z/b9p8b05s1kb5msq549c5__rh0000gn/T//cc8CuGSI.s 			page 58


 1712              	.LBI417:
  62:../../libdaisy/src/hid/audio.h ****     ~AudioHandle() {}
 1713              		.loc 6 62 5 view .LVU454
 1714              	.LBE417:
 1715              	.LBE416:
 1716              	.LBE415:
 1717              	.LBE414:
 1718              	.LBE413:
 1719              		.loc 10 96 1 is_stmt 0 view .LVU455
 1720 0000 10B5     		push	{r4, lr}
 1721              		.cfi_def_cfa_offset 8
 1722              		.cfi_offset 4, -8
 1723              		.cfi_offset 14, -4
 1724              	.LBB474:
 1725              	.LBB472:
 1726              	.LBB432:
 1727              	.LBB430:
 1728              	.LBB422:
 1729              	.LBB418:
 1730              	.LBB419:
  62:../../libdaisy/src/hid/audio.h ****     ~AudioHandle() {}
 1731              		.loc 6 62 35 view .LVU456
 1732 0002 1B48     		ldr	r0, .L106
 1733 0004 0024     		movs	r4, #0
 1734              	.LBE419:
 1735              	.LBE418:
 1736              	.LBE422:
 1737              	.LBE430:
 1738              	.LBE432:
  10:DrumModule.cpp **** Oscillator osc;
 1739              		.loc 10 10 12 view .LVU457
 1740 0006 1B4A     		ldr	r2, .L106+4
 1741 0008 1B49     		ldr	r1, .L106+8
 1742              	.LBB433:
 1743              	.LBB431:
 1744              	.LBB423:
 1745              	.LBB421:
 1746              	.LBB420:
  62:../../libdaisy/src/hid/audio.h ****     ~AudioHandle() {}
 1747              		.loc 6 62 35 view .LVU458
 1748 000a 4461     		str	r4, [r0, #20]
 1749              	.LVL132:
  62:../../libdaisy/src/hid/audio.h ****     ~AudioHandle() {}
 1750              		.loc 6 62 35 view .LVU459
 1751              	.LBE420:
 1752              	.LBE421:
 1753              	.LBE423:
 1754              	.LBB424:
 1755              	.LBI424:
  84:../../libdaisy/src/per/adc.h ****     ~AdcHandle() {}
 1756              		.loc 5 84 5 is_stmt 1 view .LVU460
  84:../../libdaisy/src/per/adc.h ****     ~AdcHandle() {}
 1757              		.loc 5 84 5 is_stmt 0 view .LVU461
 1758              	.LBE424:
 1759              	.LBB425:
 1760              	.LBI425:
 1761              		.file 14 "../../libdaisy/src/per/dac.h"
ARM GAS  /var/folders/0z/b9p8b05s1kb5msq549c5__rh0000gn/T//cc8CuGSI.s 			page 59


   1:../../libdaisy/src/per/dac.h **** #pragma once
   2:../../libdaisy/src/per/dac.h **** #ifndef DSY_DAC_H
   3:../../libdaisy/src/per/dac.h **** #define DSY_DAC_H
   4:../../libdaisy/src/per/dac.h **** 
   5:../../libdaisy/src/per/dac.h **** #include "daisy_core.h"
   6:../../libdaisy/src/per/dac.h **** 
   7:../../libdaisy/src/per/dac.h **** namespace daisy
   8:../../libdaisy/src/per/dac.h **** {
   9:../../libdaisy/src/per/dac.h **** /** DAC handle for Built-in DAC Peripheral 
  10:../../libdaisy/src/per/dac.h ****  ** 
  11:../../libdaisy/src/per/dac.h ****  ** For now only Normal Mode is supported,
  12:../../libdaisy/src/per/dac.h ****  ** Sample and hold mode provides reduced power consumption, but requires a bit more setup.
  13:../../libdaisy/src/per/dac.h ****  **
  14:../../libdaisy/src/per/dac.h ****  ** For now connecting the DAC through other internal periphearls is also not supported.
  15:../../libdaisy/src/per/dac.h ****  **
  16:../../libdaisy/src/per/dac.h ****  ** Since the DAC channels have dedicated pins we don't need to pass in a pin config like with
  17:../../libdaisy/src/per/dac.h ****  ** other modules. However, it is still important to not try to use the DAC pins for anything else.
  18:../../libdaisy/src/per/dac.h ****  ** DAC Channel 1 is on PA4, and DAC Channel 2 is on PA5
  19:../../libdaisy/src/per/dac.h ****  ***/
  20:../../libdaisy/src/per/dac.h **** class DacHandle
  21:../../libdaisy/src/per/dac.h **** {
  22:../../libdaisy/src/per/dac.h ****   public:
  23:../../libdaisy/src/per/dac.h ****     /** Return Values for the DacHandle class */
  24:../../libdaisy/src/per/dac.h ****     enum class Result
  25:../../libdaisy/src/per/dac.h ****     {
  26:../../libdaisy/src/per/dac.h ****         OK,
  27:../../libdaisy/src/per/dac.h ****         ERR,
  28:../../libdaisy/src/per/dac.h ****     };
  29:../../libdaisy/src/per/dac.h **** 
  30:../../libdaisy/src/per/dac.h ****     /** Selects which channel(s) will be configured for use. */
  31:../../libdaisy/src/per/dac.h ****     enum class Channel
  32:../../libdaisy/src/per/dac.h ****     {
  33:../../libdaisy/src/per/dac.h ****         ONE,
  34:../../libdaisy/src/per/dac.h ****         TWO,
  35:../../libdaisy/src/per/dac.h ****         BOTH,
  36:../../libdaisy/src/per/dac.h ****     };
  37:../../libdaisy/src/per/dac.h **** 
  38:../../libdaisy/src/per/dac.h ****     /** Sets the Mode for the DAC channels.
  39:../../libdaisy/src/per/dac.h ****      **
  40:../../libdaisy/src/per/dac.h ****      ** Polling mode uses the blocking mode to transmit a single value at a time.
  41:../../libdaisy/src/per/dac.h ****      **
  42:../../libdaisy/src/per/dac.h ****      ** DMA mode uses a buffer, and periodically transmits it triggering a 
  43:../../libdaisy/src/per/dac.h ****      ** callback to fill the buffer when it is ready for more samples.
  44:../../libdaisy/src/per/dac.h ****      ***/
  45:../../libdaisy/src/per/dac.h ****     enum class Mode
  46:../../libdaisy/src/per/dac.h ****     {
  47:../../libdaisy/src/per/dac.h ****         POLLING,
  48:../../libdaisy/src/per/dac.h ****         DMA,
  49:../../libdaisy/src/per/dac.h ****     };
  50:../../libdaisy/src/per/dac.h **** 
  51:../../libdaisy/src/per/dac.h ****     /** Sets the number of bits per sample transmitted out of the DAC.
  52:../../libdaisy/src/per/dac.h ****      ** The output range will be: 0V - VDDA
  53:../../libdaisy/src/per/dac.h ****      ** The resolution will be roughly: bitdepth / (VDDA - 0V) 
  54:../../libdaisy/src/per/dac.h ****      ***/
  55:../../libdaisy/src/per/dac.h ****     enum class BitDepth
  56:../../libdaisy/src/per/dac.h ****     {
  57:../../libdaisy/src/per/dac.h ****         BITS_8,
ARM GAS  /var/folders/0z/b9p8b05s1kb5msq549c5__rh0000gn/T//cc8CuGSI.s 			page 60


  58:../../libdaisy/src/per/dac.h ****         BITS_12
  59:../../libdaisy/src/per/dac.h ****     };
  60:../../libdaisy/src/per/dac.h **** 
  61:../../libdaisy/src/per/dac.h ****     /** Sets whether the DAC output is buffered for higher drive ability. */
  62:../../libdaisy/src/per/dac.h ****     enum class BufferState
  63:../../libdaisy/src/per/dac.h ****     {
  64:../../libdaisy/src/per/dac.h ****         ENABLED,
  65:../../libdaisy/src/per/dac.h ****         DISABLED,
  66:../../libdaisy/src/per/dac.h ****     };
  67:../../libdaisy/src/per/dac.h **** 
  68:../../libdaisy/src/per/dac.h ****     /** Configuration structure for initializing the DAC structure. */
  69:../../libdaisy/src/per/dac.h ****     struct Config
  70:../../libdaisy/src/per/dac.h ****     {
  71:../../libdaisy/src/per/dac.h ****         /** Target Samplerate in Hz used to configure the internal 
  72:../../libdaisy/src/per/dac.h ****          ** timebase for DMA mode. Does nothing in POLLING mode.
  73:../../libdaisy/src/per/dac.h ****          ** If the value is 0 at Init time this will default to 48000Hz 
  74:../../libdaisy/src/per/dac.h ****          ** otherwise the driver will attempt meet the target.*/
  75:../../libdaisy/src/per/dac.h ****         uint32_t target_samplerate;
  76:../../libdaisy/src/per/dac.h **** 
  77:../../libdaisy/src/per/dac.h ****         Channel     chn;
  78:../../libdaisy/src/per/dac.h ****         Mode        mode;
  79:../../libdaisy/src/per/dac.h ****         BitDepth    bitdepth;
  80:../../libdaisy/src/per/dac.h ****         BufferState buff_state;
  81:../../libdaisy/src/per/dac.h ****     };
  82:../../libdaisy/src/per/dac.h **** 
  83:../../libdaisy/src/per/dac.h ****     DacHandle() : pimpl_(nullptr) {}
 1762              		.loc 14 83 5 is_stmt 1 view .LVU462
 1763              	.LBB426:
 1764              	.LBB427:
 1765              		.loc 14 83 33 is_stmt 0 view .LVU463
 1766 000c 0462     		str	r4, [r0, #32]
 1767              	.LVL133:
 1768              		.loc 14 83 33 view .LVU464
 1769              	.LBE427:
 1770              	.LBE426:
 1771              	.LBE425:
 1772              	.LBB428:
 1773              	.LBI428:
  40:../../libdaisy/src/hid/usb.h **** 
 1774              		.loc 4 40 5 is_stmt 1 view .LVU465
  40:../../libdaisy/src/hid/usb.h **** 
 1775              		.loc 4 40 5 is_stmt 0 view .LVU466
 1776              	.LBE428:
 1777              	.LBB429:
 1778              	.LBI429:
  58:../../libdaisy/src/sys/system.h ****     ~System() {}
 1779              		.loc 3 58 5 is_stmt 1 view .LVU467
  58:../../libdaisy/src/sys/system.h ****     ~System() {}
 1780              		.loc 3 58 5 is_stmt 0 view .LVU468
 1781              	.LBE429:
 1782              	.LBE431:
 1783              	.LBE433:
  10:DrumModule.cpp **** Oscillator osc;
 1784              		.loc 10 10 12 view .LVU469
 1785 000e FFF7FEFF 		bl	__aeabi_atexit
 1786              	.LVL134:
 1787              	.LBB434:
ARM GAS  /var/folders/0z/b9p8b05s1kb5msq549c5__rh0000gn/T//cc8CuGSI.s 			page 61


 1788              	.LBI434:
  15:../../DaisySP/Source/Synthesis/oscillator.h ****     ~Oscillator() {}
 1789              		.loc 8 15 5 is_stmt 1 view .LVU470
  15:../../DaisySP/Source/Synthesis/oscillator.h ****     ~Oscillator() {}
 1790              		.loc 8 15 5 is_stmt 0 view .LVU471
 1791              	.LBE434:
  11:DrumModule.cpp **** AdEnv      env;
 1792              		.loc 10 11 12 view .LVU472
 1793 0012 184A     		ldr	r2, .L106+4
 1794 0014 1949     		ldr	r1, .L106+12
 1795 0016 1A48     		ldr	r0, .L106+16
 1796 0018 FFF7FEFF 		bl	__aeabi_atexit
 1797              	.LVL135:
 1798              	.LBB435:
 1799              	.LBI435:
  34:../../DaisySP/Source/Control/adenv.h ****     ~AdEnv() {}
 1800              		.loc 7 34 5 is_stmt 1 view .LVU473
  34:../../DaisySP/Source/Control/adenv.h ****     ~AdEnv() {}
 1801              		.loc 7 34 5 is_stmt 0 view .LVU474
 1802              	.LBE435:
  12:DrumModule.cpp **** 
 1803              		.loc 10 12 12 view .LVU475
 1804 001c 154A     		ldr	r2, .L106+4
 1805 001e 1949     		ldr	r1, .L106+20
 1806 0020 1948     		ldr	r0, .L106+24
 1807 0022 FFF7FEFF 		bl	__aeabi_atexit
 1808              	.LVL136:
 1809              	.LBB436:
 1810              	.LBI436:
  82:../../libdaisy/src/hid/midi.h ****     ~MidiHandler() {}
 1811              		.loc 9 82 5 is_stmt 1 view .LVU476
 1812              	.LBB437:
 1813              	.LBB438:
 1814              	.LBB439:
 1815              	.LBI439:
 1816              		.file 15 "../../libdaisy/src/per/uart.h"
   1:../../libdaisy/src/per/uart.h **** /* 
   2:../../libdaisy/src/per/uart.h **** TODO
   3:../../libdaisy/src/per/uart.h **** - UART1 defaults to DMA, add flexible config for DMA on all periphs
   4:../../libdaisy/src/per/uart.h **** - Transmit function improvements.
   5:../../libdaisy/src/per/uart.h **** - Overflow handling, etc. for Rx Queue.
   6:../../libdaisy/src/per/uart.h **** */
   7:../../libdaisy/src/per/uart.h **** 
   8:../../libdaisy/src/per/uart.h **** #pragma once
   9:../../libdaisy/src/per/uart.h **** #ifndef DSY_UART_H
  10:../../libdaisy/src/per/uart.h **** #define DSY_UART_H /**< macro */
  11:../../libdaisy/src/per/uart.h **** #include "daisy_core.h"
  12:../../libdaisy/src/per/uart.h **** 
  13:../../libdaisy/src/per/uart.h **** 
  14:../../libdaisy/src/per/uart.h **** namespace daisy
  15:../../libdaisy/src/per/uart.h **** {
  16:../../libdaisy/src/per/uart.h **** /** @addtogroup serial
  17:../../libdaisy/src/per/uart.h ****     @{
  18:../../libdaisy/src/per/uart.h ****     */
  19:../../libdaisy/src/per/uart.h **** 
  20:../../libdaisy/src/per/uart.h **** /** 
  21:../../libdaisy/src/per/uart.h ****     Uart Peripheral
ARM GAS  /var/folders/0z/b9p8b05s1kb5msq549c5__rh0000gn/T//cc8CuGSI.s 			page 62


  22:../../libdaisy/src/per/uart.h ****     @author shensley
  23:../../libdaisy/src/per/uart.h ****     @date March 2020
  24:../../libdaisy/src/per/uart.h ****     */
  25:../../libdaisy/src/per/uart.h **** class UartHandler
  26:../../libdaisy/src/per/uart.h **** {
  27:../../libdaisy/src/per/uart.h ****   public:
  28:../../libdaisy/src/per/uart.h ****     struct Config
  29:../../libdaisy/src/per/uart.h ****     {
  30:../../libdaisy/src/per/uart.h ****         enum class Peripheral
  31:../../libdaisy/src/per/uart.h ****         {
  32:../../libdaisy/src/per/uart.h ****             USART_1,
  33:../../libdaisy/src/per/uart.h ****             USART_2,
  34:../../libdaisy/src/per/uart.h ****             USART_3,
  35:../../libdaisy/src/per/uart.h ****             UART_4,
  36:../../libdaisy/src/per/uart.h ****             UART_5,
  37:../../libdaisy/src/per/uart.h ****             USART_6,
  38:../../libdaisy/src/per/uart.h ****             UART_7,
  39:../../libdaisy/src/per/uart.h ****             UART_8,
  40:../../libdaisy/src/per/uart.h ****             LPUART_1,
  41:../../libdaisy/src/per/uart.h ****         };
  42:../../libdaisy/src/per/uart.h **** 
  43:../../libdaisy/src/per/uart.h ****         enum class StopBits
  44:../../libdaisy/src/per/uart.h ****         {
  45:../../libdaisy/src/per/uart.h ****             BITS_0_5,
  46:../../libdaisy/src/per/uart.h ****             BITS_1,
  47:../../libdaisy/src/per/uart.h ****             BITS_1_5,
  48:../../libdaisy/src/per/uart.h ****             BITS_2,
  49:../../libdaisy/src/per/uart.h ****         };
  50:../../libdaisy/src/per/uart.h **** 
  51:../../libdaisy/src/per/uart.h ****         enum class Parity
  52:../../libdaisy/src/per/uart.h ****         {
  53:../../libdaisy/src/per/uart.h ****             NONE,
  54:../../libdaisy/src/per/uart.h ****             EVEN,
  55:../../libdaisy/src/per/uart.h ****             ODD,
  56:../../libdaisy/src/per/uart.h ****         };
  57:../../libdaisy/src/per/uart.h **** 
  58:../../libdaisy/src/per/uart.h ****         enum class Mode
  59:../../libdaisy/src/per/uart.h ****         {
  60:../../libdaisy/src/per/uart.h ****             RX,
  61:../../libdaisy/src/per/uart.h ****             TX,
  62:../../libdaisy/src/per/uart.h ****             TX_RX,
  63:../../libdaisy/src/per/uart.h ****         };
  64:../../libdaisy/src/per/uart.h **** 
  65:../../libdaisy/src/per/uart.h ****         enum class WordLength
  66:../../libdaisy/src/per/uart.h ****         {
  67:../../libdaisy/src/per/uart.h ****             BITS_7,
  68:../../libdaisy/src/per/uart.h ****             BITS_8,
  69:../../libdaisy/src/per/uart.h ****             BITS_9,
  70:../../libdaisy/src/per/uart.h ****         };
  71:../../libdaisy/src/per/uart.h **** 
  72:../../libdaisy/src/per/uart.h ****         struct
  73:../../libdaisy/src/per/uart.h ****         {
  74:../../libdaisy/src/per/uart.h ****             dsy_gpio_pin tx; /**< & */
  75:../../libdaisy/src/per/uart.h ****             dsy_gpio_pin rx; /**< & */
  76:../../libdaisy/src/per/uart.h ****         } pin_config;        /**< & */
  77:../../libdaisy/src/per/uart.h **** 
  78:../../libdaisy/src/per/uart.h ****         Peripheral periph;
ARM GAS  /var/folders/0z/b9p8b05s1kb5msq549c5__rh0000gn/T//cc8CuGSI.s 			page 63


  79:../../libdaisy/src/per/uart.h ****         StopBits   stopbits;
  80:../../libdaisy/src/per/uart.h ****         Parity     parity;
  81:../../libdaisy/src/per/uart.h ****         Mode       mode;
  82:../../libdaisy/src/per/uart.h ****         WordLength wordlength;
  83:../../libdaisy/src/per/uart.h ****         uint32_t   baudrate;
  84:../../libdaisy/src/per/uart.h ****     };
  85:../../libdaisy/src/per/uart.h **** 
  86:../../libdaisy/src/per/uart.h **** 
  87:../../libdaisy/src/per/uart.h ****     UartHandler() : pimpl_(nullptr) {}
 1817              		.loc 15 87 5 view .LVU477
 1818              	.LBB440:
 1819              	.LBB441:
 1820              		.loc 15 87 35 is_stmt 0 view .LVU478
 1821 0026 1948     		ldr	r0, .L106+28
 1822              	.LBE441:
 1823              	.LBE440:
 1824              	.LBE439:
 1825              	.LBB444:
 1826              	.LBB445:
 1827              	.LBB446:
 1828              	.LBB447:
  36:../../libdaisy/src/hid/midi.h ****             tx     = {DSY_GPIOB, 6};
 1829              		.loc 9 36 20 view .LVU479
 1830 0028 1949     		ldr	r1, .L106+32
  35:../../libdaisy/src/hid/midi.h ****             rx     = {DSY_GPIOB, 7};
 1831              		.loc 9 35 20 view .LVU480
 1832 002a 00F51043 		add	r3, r0, #36864
 1833              	.LBE447:
 1834              	.LBE446:
 1835              	.LBE445:
 1836              	.LBE444:
 1837              	.LBB457:
 1838              	.LBB443:
 1839              	.LBB442:
 1840              		.loc 15 87 35 view .LVU481
 1841 002e 0460     		str	r4, [r0]
 1842              	.LVL137:
 1843              		.loc 15 87 35 view .LVU482
 1844              	.LBE442:
 1845              	.LBE443:
 1846              	.LBE457:
 1847              	.LBB458:
 1848              	.LBI458:
  21:../../libdaisy/src/util/ringbuffer.h **** 
 1849              		.loc 13 21 5 is_stmt 1 view .LVU483
  21:../../libdaisy/src/util/ringbuffer.h **** 
 1850              		.loc 13 21 5 is_stmt 0 view .LVU484
 1851              	.LBE458:
 1852              	.LBB459:
 1853              	.LBI444:
  85:../../libdaisy/src/hid/midi.h ****     {
 1854              		.loc 9 85 12 is_stmt 1 view .LVU485
 1855              	.LBB454:
 1856              	.LBI445:
  33:../../libdaisy/src/hid/midi.h ****         {
 1857              		.loc 9 33 9 view .LVU486
 1858              	.LBB451:
ARM GAS  /var/folders/0z/b9p8b05s1kb5msq549c5__rh0000gn/T//cc8CuGSI.s 			page 64


 1859              	.LBB448:
  35:../../libdaisy/src/hid/midi.h ****             rx     = {DSY_GPIOB, 7};
 1860              		.loc 9 35 13 view .LVU487
 1861              	.LBE448:
 1862              	.LBE451:
 1863              	.LBE454:
 1864              	.LBE459:
 1865              	.LBE438:
 1866              	.LBE437:
 1867              	.LBE436:
  14:DrumModule.cpp **** 
 1868              		.loc 10 14 17 is_stmt 0 view .LVU488
 1869 0030 104A     		ldr	r2, .L106+4
 1870              	.LBB470:
 1871              	.LBB469:
 1872              	.LBB468:
 1873              	.LBB460:
 1874              	.LBB455:
 1875              	.LBB452:
 1876              	.LBB449:
  35:../../libdaisy/src/hid/midi.h ****             rx     = {DSY_GPIOB, 7};
 1877              		.loc 9 35 20 view .LVU489
 1878 0032 C3F8A840 		str	r4, [r3, #168]
  36:../../libdaisy/src/hid/midi.h ****             tx     = {DSY_GPIOB, 6};
 1879              		.loc 9 36 13 is_stmt 1 view .LVU490
 1880              	.LBE449:
 1881              	.LBE452:
 1882              	.LBE455:
 1883              	.LBE460:
 1884              	.LBB461:
 1885              	.LBB462:
 1886              	.LBB463:
 1887              	.LBB464:
 1888              		.loc 15 87 35 is_stmt 0 view .LVU491
 1889 0036 C3F8B040 		str	r4, [r3, #176]
 1890              	.LBE464:
 1891              	.LBE463:
 1892              	.LBE462:
 1893              	.LBE461:
  82:../../libdaisy/src/hid/midi.h ****     ~MidiHandler() {}
 1894              		.loc 9 82 19 view .LVU492
 1895 003a 164C     		ldr	r4, .L106+36
 1896 003c C3F8B440 		str	r4, [r3, #180]
 1897 0040 4FF60F04 		movw	r4, #63503
 1898 0044 A3F8B840 		strh	r4, [r3, #184]	@ movhi
 1899 0048 0724     		movs	r4, #7
 1900 004a 83F8BA40 		strb	r4, [r3, #186]
 1901              	.LBB466:
 1902              	.LBB456:
 1903              	.LBB453:
 1904              	.LBB450:
  36:../../libdaisy/src/hid/midi.h ****             tx     = {DSY_GPIOB, 6};
 1905              		.loc 9 36 20 view .LVU493
 1906 004e 0C88     		ldrh	r4, [r1]
  37:../../libdaisy/src/hid/midi.h ****         }
 1907              		.loc 9 37 20 view .LVU494
 1908 0050 8988     		ldrh	r1, [r1, #4]
ARM GAS  /var/folders/0z/b9p8b05s1kb5msq549c5__rh0000gn/T//cc8CuGSI.s 			page 65


  36:../../libdaisy/src/hid/midi.h ****             tx     = {DSY_GPIOB, 6};
 1909              		.loc 9 36 20 view .LVU495
 1910 0052 A3F8AC40 		strh	r4, [r3, #172]	@ movhi
  37:../../libdaisy/src/hid/midi.h ****         }
 1911              		.loc 9 37 13 is_stmt 1 view .LVU496
  37:../../libdaisy/src/hid/midi.h ****         }
 1912              		.loc 9 37 20 is_stmt 0 view .LVU497
 1913 0056 A3F8AE10 		strh	r1, [r3, #174]	@ movhi
 1914              	.LVL138:
  37:../../libdaisy/src/hid/midi.h ****         }
 1915              		.loc 9 37 20 view .LVU498
 1916              	.LBE450:
 1917              	.LBE453:
 1918              	.LBE456:
 1919              	.LBE466:
 1920              	.LBB467:
 1921              	.LBI461:
  24:../../libdaisy/src/hid/midi.h ****     ~MidiUartTransport() {}
 1922              		.loc 9 24 5 is_stmt 1 view .LVU499
 1923              	.LBB465:
 1924              	.LBI462:
 1925              		.loc 15 87 5 view .LVU500
 1926              		.loc 15 87 5 is_stmt 0 view .LVU501
 1927              	.LBE465:
 1928              	.LBE467:
 1929              	.LBE468:
 1930              	.LBE469:
 1931              	.LBE470:
  14:DrumModule.cpp **** 
 1932              		.loc 10 14 17 view .LVU502
 1933 005a 0F49     		ldr	r1, .L106+40
 1934 005c FFF7FEFF 		bl	__aeabi_atexit
 1935              	.LVL139:
 1936              	.LBB471:
 1937              	.LBI471:
  40:../../libdaisy/src/hid/switch.h ****     ~Switch() {}
 1938              		.loc 1 40 5 is_stmt 1 view .LVU503
  40:../../libdaisy/src/hid/switch.h ****     ~Switch() {}
 1939              		.loc 1 40 5 is_stmt 0 view .LVU504
 1940              	.LBE471:
  16:DrumModule.cpp **** 
 1941              		.loc 10 16 8 view .LVU505
 1942 0060 044A     		ldr	r2, .L106+4
 1943 0062 0E49     		ldr	r1, .L106+44
 1944 0064 0E48     		ldr	r0, .L106+48
 1945              	.LBE472:
 1946              	.LBE474:
 1947              		.loc 10 96 1 view .LVU506
 1948 0066 BDE81040 		pop	{r4, lr}
 1949              		.cfi_restore 14
 1950              		.cfi_restore 4
 1951              		.cfi_def_cfa_offset 0
 1952              	.LBB475:
 1953              	.LBB473:
  16:DrumModule.cpp **** 
 1954              		.loc 10 16 8 view .LVU507
 1955 006a FFF7FEBF 		b	__aeabi_atexit
ARM GAS  /var/folders/0z/b9p8b05s1kb5msq549c5__rh0000gn/T//cc8CuGSI.s 			page 66


 1956              	.LVL140:
 1957              	.L107:
 1958 006e 00BF     		.align	2
 1959              	.L106:
 1960 0070 00000000 		.word	.LANCHOR2
 1961 0074 00000000 		.word	__dso_handle
 1962 0078 00000000 		.word	_ZN5daisy9DaisySeedD1Ev
 1963 007c 00000000 		.word	_ZN7daisysp10OscillatorD1Ev
 1964 0080 00000000 		.word	.LANCHOR0
 1965 0084 00000000 		.word	_ZN7daisysp5AdEnvD1Ev
 1966 0088 00000000 		.word	.LANCHOR3
 1967 008c 00000000 		.word	midi
 1968 0090 00000000 		.word	.LANCHOR4
 1969 0094 80707FF0 		.word	-260083584
 1970 0098 00000000 		.word	_ZN5daisy11MidiHandlerINS_17MidiUartTransportEED1Ev
 1971 009c 00000000 		.word	_ZN5daisy6SwitchD1Ev
 1972 00a0 00000000 		.word	.LANCHOR5
 1973              	.LBE473:
 1974              	.LBE475:
 1975              		.cfi_endproc
 1976              	.LFE4826:
 1978              		.section	.init_array,"aw",%init_array
 1979              		.align	2
 1980 0000 00000000 		.word	_GLOBAL__sub_I_hardware(target1)
 1981              		.global	note
 1982              		.global	button1
 1983              		.global	midi
 1984              		.global	env
 1985              		.global	osc
 1986              		.global	hardware
 1987              		.section	.rodata
 1988              		.align	2
 1989              		.set	.LANCHOR4,. + 0
 1990              	.LC0:
 1991 0000 01       		.byte	1
 1992 0001 07       		.byte	7
 1993 0002 0000     		.space	2
 1994              	.LC1:
 1995 0004 01       		.byte	1
 1996 0005 06       		.byte	6
 1997              		.section	.bss.button1,"aw",%nobits
 1998              		.align	2
 1999              		.set	.LANCHOR5,. + 0
 2002              	button1:
 2003 0000 00000000 		.space	16
 2003      00000000 
 2003      00000000 
 2003      00000000 
 2004              		.section	.bss.env,"aw",%nobits
 2005              		.align	2
 2006              		.set	.LANCHOR3,. + 0
 2009              	env:
 2010 0000 00000000 		.space	56
 2010      00000000 
 2010      00000000 
 2010      00000000 
 2010      00000000 
ARM GAS  /var/folders/0z/b9p8b05s1kb5msq549c5__rh0000gn/T//cc8CuGSI.s 			page 67


 2011              		.section	.bss.hardware,"aw",%nobits
 2012              		.align	2
 2013              		.set	.LANCHOR2,. + 0
 2016              	hardware:
 2017 0000 00000000 		.space	60
 2017      00000000 
 2017      00000000 
 2017      00000000 
 2017      00000000 
 2018              		.section	.bss.midi,"aw",%nobits
 2019              		.align	2
 2022              	midi:
 2023 0000 00000000 		.space	37052
 2023      00000000 
 2023      00000000 
 2023      00000000 
 2023      00000000 
 2024              		.section	.bss.osc,"aw",%nobits
 2025              		.align	2
 2026              		.set	.LANCHOR0,. + 0
 2029              	osc:
 2030 0000 00000000 		.space	40
 2030      00000000 
 2030      00000000 
 2030      00000000 
 2030      00000000 
 2031              		.section	.data.note,"aw"
 2032              		.align	2
 2033              		.set	.LANCHOR1,. + 0
 2036              	note:
 2037 0000 3C000000 		.word	60
 2038              		.text
 2039              	.Letext0:
 2040              		.file 16 "/opt/homebrew/Caskroom/gcc-arm-embedded/10-2020-q4-major/gcc-arm-none-eabi-10-2020-q4-ma
 2041              		.file 17 "/opt/homebrew/Caskroom/gcc-arm-embedded/10-2020-q4-major/gcc-arm-none-eabi-10-2020-q4-ma
 2042              		.file 18 "/opt/homebrew/Caskroom/gcc-arm-embedded/10-2020-q4-major/gcc-arm-none-eabi-10-2020-q4-ma
 2043              		.file 19 "/opt/homebrew/Caskroom/gcc-arm-embedded/10-2020-q4-major/gcc-arm-none-eabi-10-2020-q4-ma
 2044              		.file 20 "/opt/homebrew/Caskroom/gcc-arm-embedded/10-2020-q4-major/gcc-arm-none-eabi-10-2020-q4-ma
 2045              		.file 21 "/opt/homebrew/Caskroom/gcc-arm-embedded/10-2020-q4-major/gcc-arm-none-eabi-10-2020-q4-ma
 2046              		.file 22 "/opt/homebrew/Caskroom/gcc-arm-embedded/10-2020-q4-major/gcc-arm-none-eabi-10-2020-q4-ma
 2047              		.file 23 "/opt/homebrew/Caskroom/gcc-arm-embedded/10-2020-q4-major/gcc-arm-none-eabi-10-2020-q4-ma
 2048              		.file 24 "/opt/homebrew/Caskroom/gcc-arm-embedded/10-2020-q4-major/gcc-arm-none-eabi-10-2020-q4-ma
 2049              		.file 25 "/opt/homebrew/Caskroom/gcc-arm-embedded/10-2020-q4-major/gcc-arm-none-eabi-10-2020-q4-ma
 2050              		.file 26 "/opt/homebrew/Caskroom/gcc-arm-embedded/10-2020-q4-major/gcc-arm-none-eabi-10-2020-q4-ma
 2051              		.file 27 "/opt/homebrew/Caskroom/gcc-arm-embedded/10-2020-q4-major/gcc-arm-none-eabi-10-2020-q4-ma
 2052              		.file 28 "/opt/homebrew/Caskroom/gcc-arm-embedded/10-2020-q4-major/gcc-arm-none-eabi-10-2020-q4-ma
 2053              		.file 29 "/opt/homebrew/Caskroom/gcc-arm-embedded/10-2020-q4-major/gcc-arm-none-eabi-10-2020-q4-ma
 2054              		.file 30 "/opt/homebrew/Caskroom/gcc-arm-embedded/10-2020-q4-major/gcc-arm-none-eabi-10-2020-q4-ma
 2055              		.file 31 "/opt/homebrew/Caskroom/gcc-arm-embedded/10-2020-q4-major/gcc-arm-none-eabi-10-2020-q4-ma
 2056              		.file 32 "/opt/homebrew/Caskroom/gcc-arm-embedded/10-2020-q4-major/gcc-arm-none-eabi-10-2020-q4-ma
 2057              		.file 33 "/opt/homebrew/Caskroom/gcc-arm-embedded/10-2020-q4-major/gcc-arm-none-eabi-10-2020-q4-ma
 2058              		.file 34 "/opt/homebrew/Caskroom/gcc-arm-embedded/10-2020-q4-major/gcc-arm-none-eabi-10-2020-q4-ma
 2059              		.file 35 "/opt/homebrew/Caskroom/gcc-arm-embedded/10-2020-q4-major/gcc-arm-none-eabi-10-2020-q4-ma
 2060              		.file 36 "/opt/homebrew/Caskroom/gcc-arm-embedded/10-2020-q4-major/gcc-arm-none-eabi-10-2020-q4-ma
 2061              		.file 37 "/opt/homebrew/Caskroom/gcc-arm-embedded/10-2020-q4-major/gcc-arm-none-eabi-10-2020-q4-ma
 2062              		.file 38 "/opt/homebrew/Caskroom/gcc-arm-embedded/10-2020-q4-major/gcc-arm-none-eabi-10-2020-q4-ma
 2063              		.file 39 "/opt/homebrew/Caskroom/gcc-arm-embedded/10-2020-q4-major/gcc-arm-none-eabi-10-2020-q4-ma
ARM GAS  /var/folders/0z/b9p8b05s1kb5msq549c5__rh0000gn/T//cc8CuGSI.s 			page 68


 2064              		.file 40 "/opt/homebrew/Caskroom/gcc-arm-embedded/10-2020-q4-major/gcc-arm-none-eabi-10-2020-q4-ma
 2065              		.file 41 "/opt/homebrew/Caskroom/gcc-arm-embedded/10-2020-q4-major/gcc-arm-none-eabi-10-2020-q4-ma
 2066              		.file 42 "/opt/homebrew/Caskroom/gcc-arm-embedded/10-2020-q4-major/gcc-arm-none-eabi-10-2020-q4-ma
 2067              		.file 43 "/opt/homebrew/Caskroom/gcc-arm-embedded/10-2020-q4-major/gcc-arm-none-eabi-10-2020-q4-ma
 2068              		.file 44 "/opt/homebrew/Caskroom/gcc-arm-embedded/10-2020-q4-major/gcc-arm-none-eabi-10-2020-q4-ma
 2069              		.file 45 "../../libdaisy/src/daisy_core.h"
 2070              		.file 46 "../../libdaisy/src/per/tim.h"
 2071              		.file 47 "../../libdaisy/src/per/sai.h"
 2072              		.file 48 "../../libdaisy/src/util/wav_format.h"
 2073              		.file 49 "../../libdaisy/src/per/qspi.h"
 2074              		.file 50 "../../libdaisy/src/per/gpio.h"
 2075              		.file 51 "../../libdaisy/src/dev/sdram.h"
 2076              		.file 52 "/opt/homebrew/Caskroom/gcc-arm-embedded/10-2020-q4-major/gcc-arm-none-eabi-10-2020-q4-ma
 2077              		.file 53 "/opt/homebrew/Caskroom/gcc-arm-embedded/10-2020-q4-major/gcc-arm-none-eabi-10-2020-q4-ma
 2078              		.file 54 "/opt/homebrew/Caskroom/gcc-arm-embedded/10-2020-q4-major/gcc-arm-none-eabi-10-2020-q4-ma
 2079              		.file 55 "/opt/homebrew/Caskroom/gcc-arm-embedded/10-2020-q4-major/gcc-arm-none-eabi-10-2020-q4-ma
 2080              		.file 56 "/opt/homebrew/Caskroom/gcc-arm-embedded/10-2020-q4-major/gcc-arm-none-eabi-10-2020-q4-ma
 2081              		.file 57 "<built-in>"
 2082              		.file 58 "../../libdaisy/src/dev/sr_595.h"
ARM GAS  /var/folders/0z/b9p8b05s1kb5msq549c5__rh0000gn/T//cc8CuGSI.s 			page 69


DEFINED SYMBOLS
                            *ABS*:0000000000000000 DrumModule.cpp
/var/folders/0z/b9p8b05s1kb5msq549c5__rh0000gn/T//cc8CuGSI.s:17     .text._ZN5daisy6SwitchD2Ev:0000000000000000 $t
/var/folders/0z/b9p8b05s1kb5msq549c5__rh0000gn/T//cc8CuGSI.s:26     .text._ZN5daisy6SwitchD2Ev:0000000000000000 _ZN5daisy6SwitchD2Ev
/var/folders/0z/b9p8b05s1kb5msq549c5__rh0000gn/T//cc8CuGSI.s:26     .text._ZN5daisy6SwitchD2Ev:0000000000000000 _ZN5daisy6SwitchD1Ev
/var/folders/0z/b9p8b05s1kb5msq549c5__rh0000gn/T//cc8CuGSI.s:43     .text._ZN5daisy9DaisySeedD2Ev:0000000000000000 $t
/var/folders/0z/b9p8b05s1kb5msq549c5__rh0000gn/T//cc8CuGSI.s:51     .text._ZN5daisy9DaisySeedD2Ev:0000000000000000 _ZN5daisy9DaisySeedD2Ev
/var/folders/0z/b9p8b05s1kb5msq549c5__rh0000gn/T//cc8CuGSI.s:51     .text._ZN5daisy9DaisySeedD2Ev:0000000000000000 _ZN5daisy9DaisySeedD1Ev
/var/folders/0z/b9p8b05s1kb5msq549c5__rh0000gn/T//cc8CuGSI.s:92     .text._ZN7daisysp5AdEnvD2Ev:0000000000000000 $t
/var/folders/0z/b9p8b05s1kb5msq549c5__rh0000gn/T//cc8CuGSI.s:100    .text._ZN7daisysp5AdEnvD2Ev:0000000000000000 _ZN7daisysp5AdEnvD2Ev
/var/folders/0z/b9p8b05s1kb5msq549c5__rh0000gn/T//cc8CuGSI.s:100    .text._ZN7daisysp5AdEnvD2Ev:0000000000000000 _ZN7daisysp5AdEnvD1Ev
/var/folders/0z/b9p8b05s1kb5msq549c5__rh0000gn/T//cc8CuGSI.s:117    .text._ZN7daisysp10OscillatorD2Ev:0000000000000000 $t
/var/folders/0z/b9p8b05s1kb5msq549c5__rh0000gn/T//cc8CuGSI.s:125    .text._ZN7daisysp10OscillatorD2Ev:0000000000000000 _ZN7daisysp10OscillatorD2Ev
/var/folders/0z/b9p8b05s1kb5msq549c5__rh0000gn/T//cc8CuGSI.s:125    .text._ZN7daisysp10OscillatorD2Ev:0000000000000000 _ZN7daisysp10OscillatorD1Ev
/var/folders/0z/b9p8b05s1kb5msq549c5__rh0000gn/T//cc8CuGSI.s:142    .text._ZN5daisy11MidiHandlerINS_17MidiUartTransportEED2Ev:0000000000000000 $t
/var/folders/0z/b9p8b05s1kb5msq549c5__rh0000gn/T//cc8CuGSI.s:150    .text._ZN5daisy11MidiHandlerINS_17MidiUartTransportEED2Ev:0000000000000000 _ZN5daisy11MidiHandlerINS_17MidiUartTransportEED2Ev
/var/folders/0z/b9p8b05s1kb5msq549c5__rh0000gn/T//cc8CuGSI.s:150    .text._ZN5daisy11MidiHandlerINS_17MidiUartTransportEED2Ev:0000000000000000 _ZN5daisy11MidiHandlerINS_17MidiUartTransportEED1Ev
/var/folders/0z/b9p8b05s1kb5msq549c5__rh0000gn/T//cc8CuGSI.s:172    .text._Z13AudioCallbackPKfPfj:0000000000000000 $t
/var/folders/0z/b9p8b05s1kb5msq549c5__rh0000gn/T//cc8CuGSI.s:180    .text._Z13AudioCallbackPKfPfj:0000000000000000 _Z13AudioCallbackPKfPfj
/var/folders/0z/b9p8b05s1kb5msq549c5__rh0000gn/T//cc8CuGSI.s:256    .text._Z13AudioCallbackPKfPfj:0000000000000028 $d
/var/folders/0z/b9p8b05s1kb5msq549c5__rh0000gn/T//cc8CuGSI.s:261    .text._Z17HandleMidiMessageN5daisy9MidiEventE:0000000000000000 $t
/var/folders/0z/b9p8b05s1kb5msq549c5__rh0000gn/T//cc8CuGSI.s:269    .text._Z17HandleMidiMessageN5daisy9MidiEventE:0000000000000000 _Z17HandleMidiMessageN5daisy9MidiEventE
/var/folders/0z/b9p8b05s1kb5msq549c5__rh0000gn/T//cc8CuGSI.s:472    .text._Z17HandleMidiMessageN5daisy9MidiEventE:0000000000000080 $d
/var/folders/0z/b9p8b05s1kb5msq549c5__rh0000gn/T//cc8CuGSI.s:481    .text._Z8InitMidiv:0000000000000000 $t
/var/folders/0z/b9p8b05s1kb5msq549c5__rh0000gn/T//cc8CuGSI.s:489    .text._Z8InitMidiv:0000000000000000 _Z8InitMidiv
/var/folders/0z/b9p8b05s1kb5msq549c5__rh0000gn/T//cc8CuGSI.s:627    .text._Z8InitMidiv:000000000000004c $d
/var/folders/0z/b9p8b05s1kb5msq549c5__rh0000gn/T//cc8CuGSI.s:2022   .bss.midi:0000000000000000 midi
/var/folders/0z/b9p8b05s1kb5msq549c5__rh0000gn/T//cc8CuGSI.s:633    .text._ZN5daisy11MidiHandlerINS_17MidiUartTransportEE5ParseEh:0000000000000000 $t
/var/folders/0z/b9p8b05s1kb5msq549c5__rh0000gn/T//cc8CuGSI.s:641    .text._ZN5daisy11MidiHandlerINS_17MidiUartTransportEE5ParseEh:0000000000000000 _ZN5daisy11MidiHandlerINS_17MidiUartTransportEE5ParseEh
/var/folders/0z/b9p8b05s1kb5msq549c5__rh0000gn/T//cc8CuGSI.s:665    .text._ZN5daisy11MidiHandlerINS_17MidiUartTransportEE5ParseEh:0000000000000012 $d
/var/folders/0z/b9p8b05s1kb5msq549c5__rh0000gn/T//cc8CuGSI.s:669    .text._ZN5daisy11MidiHandlerINS_17MidiUartTransportEE5ParseEh:0000000000000016 $t
/var/folders/0z/b9p8b05s1kb5msq549c5__rh0000gn/T//cc8CuGSI.s:1245   .text.startup.main:0000000000000000 $t
/var/folders/0z/b9p8b05s1kb5msq549c5__rh0000gn/T//cc8CuGSI.s:1253   .text.startup.main:0000000000000000 main
/var/folders/0z/b9p8b05s1kb5msq549c5__rh0000gn/T//cc8CuGSI.s:1673   .text.startup.main:000000000000011c $d
/var/folders/0z/b9p8b05s1kb5msq549c5__rh0000gn/T//cc8CuGSI.s:1689   .text.startup._GLOBAL__sub_I_hardware:0000000000000000 $t
/var/folders/0z/b9p8b05s1kb5msq549c5__rh0000gn/T//cc8CuGSI.s:1696   .text.startup._GLOBAL__sub_I_hardware:0000000000000000 _GLOBAL__sub_I_hardware
/var/folders/0z/b9p8b05s1kb5msq549c5__rh0000gn/T//cc8CuGSI.s:1960   .text.startup._GLOBAL__sub_I_hardware:0000000000000070 $d
/var/folders/0z/b9p8b05s1kb5msq549c5__rh0000gn/T//cc8CuGSI.s:1979   .init_array:0000000000000000 $d
/var/folders/0z/b9p8b05s1kb5msq549c5__rh0000gn/T//cc8CuGSI.s:2036   .data.note:0000000000000000 note
/var/folders/0z/b9p8b05s1kb5msq549c5__rh0000gn/T//cc8CuGSI.s:2002   .bss.button1:0000000000000000 button1
/var/folders/0z/b9p8b05s1kb5msq549c5__rh0000gn/T//cc8CuGSI.s:2009   .bss.env:0000000000000000 env
/var/folders/0z/b9p8b05s1kb5msq549c5__rh0000gn/T//cc8CuGSI.s:2029   .bss.osc:0000000000000000 osc
/var/folders/0z/b9p8b05s1kb5msq549c5__rh0000gn/T//cc8CuGSI.s:2016   .bss.hardware:0000000000000000 hardware
/var/folders/0z/b9p8b05s1kb5msq549c5__rh0000gn/T//cc8CuGSI.s:1988   .rodata:0000000000000000 $d
/var/folders/0z/b9p8b05s1kb5msq549c5__rh0000gn/T//cc8CuGSI.s:1998   .bss.button1:0000000000000000 $d
/var/folders/0z/b9p8b05s1kb5msq549c5__rh0000gn/T//cc8CuGSI.s:2005   .bss.env:0000000000000000 $d
/var/folders/0z/b9p8b05s1kb5msq549c5__rh0000gn/T//cc8CuGSI.s:2012   .bss.hardware:0000000000000000 $d
/var/folders/0z/b9p8b05s1kb5msq549c5__rh0000gn/T//cc8CuGSI.s:2019   .bss.midi:0000000000000000 $d
/var/folders/0z/b9p8b05s1kb5msq549c5__rh0000gn/T//cc8CuGSI.s:2025   .bss.osc:0000000000000000 $d
/var/folders/0z/b9p8b05s1kb5msq549c5__rh0000gn/T//cc8CuGSI.s:2032   .data.note:0000000000000000 $d
                           .group:0000000000000000 _ZN5daisy6SwitchD5Ev
                           .group:0000000000000000 _ZN5daisy9DaisySeedD5Ev
                           .group:0000000000000000 _ZN7daisysp5AdEnvD5Ev
                           .group:0000000000000000 _ZN7daisysp10OscillatorD5Ev
                           .group:0000000000000000 _ZN5daisy11MidiHandlerINS_17MidiUartTransportEED5Ev

UNDEFINED SYMBOLS
ARM GAS  /var/folders/0z/b9p8b05s1kb5msq549c5__rh0000gn/T//cc8CuGSI.s 			page 70


_ZN7daisysp10Oscillator7ProcessEv
powf
_ZN7daisysp10Oscillator12CalcPhaseIncEf
_ZN5daisy11UartHandler4InitERKNS0_6ConfigE
memcpy
_ZN5daisy9DaisySeed9ConfigureEv
_ZN5daisy9DaisySeed4InitEb
_ZN5daisy9DaisySeed15AudioSampleRateEv
_ZN5daisy9DaisySeed10StartAudioEPFvPKfPfjE
_ZN5daisy6System6GetNowEv
_ZN5daisy11UartHandler5PopRxEv
_ZN5daisy11UartHandler8ReadableEv
_ZN5daisy11UartHandler8RxActiveEv
_ZN5daisy11UartHandler7FlushRxEv
_ZN5daisy11UartHandler7StartRxEv
__aeabi_atexit
__dso_handle
