ARM GAS  /var/folders/0z/b9p8b05s1kb5msq549c5__rh0000gn/T//cciRiJ2K.s 			page 1


   1              		.cpu cortex-m7
   2              		.eabi_attribute 28, 1
   3              		.eabi_attribute 20, 1
   4              		.eabi_attribute 21, 1
   5              		.eabi_attribute 23, 3
   6              		.eabi_attribute 24, 1
   7              		.eabi_attribute 25, 1
   8              		.eabi_attribute 26, 1
   9              		.eabi_attribute 30, 2
  10              		.eabi_attribute 34, 1
  11              		.eabi_attribute 18, 4
  12              		.file	"DrumModule.cpp"
  13              		.text
  14              	.Ltext0:
  15              		.cfi_sections	.debug_frame
  16              		.section	.text._ZN5daisy9DaisySeedD2Ev,"axG",%progbits,_ZN5daisy9DaisySeedD5Ev,comdat
  17              		.align	1
  18              		.p2align 2,,3
  19              		.weak	_ZN5daisy9DaisySeedD2Ev
  20              		.arch armv7e-m
  21              		.syntax unified
  22              		.thumb
  23              		.thumb_func
  24              		.fpu fpv5-d16
  26              	_ZN5daisy9DaisySeedD2Ev:
  27              	.LVL0:
  28              	.LFB2013:
  29              		.file 1 "../../libdaisy/src/daisy_seed.h"
   1:../../libdaisy/src/daisy_seed.h **** #pragma once
   2:../../libdaisy/src/daisy_seed.h **** #ifndef DSY_SEED_H
   3:../../libdaisy/src/daisy_seed.h **** #define DSY_SEED_H
   4:../../libdaisy/src/daisy_seed.h **** 
   5:../../libdaisy/src/daisy_seed.h **** #include "daisy.h"
   6:../../libdaisy/src/daisy_seed.h **** 
   7:../../libdaisy/src/daisy_seed.h **** //Uncomment this out if you're still using the rev2 hardware
   8:../../libdaisy/src/daisy_seed.h **** //#define SEED_REV2
   9:../../libdaisy/src/daisy_seed.h **** 
  10:../../libdaisy/src/daisy_seed.h **** namespace daisy
  11:../../libdaisy/src/daisy_seed.h **** {
  12:../../libdaisy/src/daisy_seed.h **** /**
  13:../../libdaisy/src/daisy_seed.h ****    @brief This is the higher-level interface for the Daisy board. \n 
  14:../../libdaisy/src/daisy_seed.h ****     All basic peripheral configuration/initialization is setup here. \n
  15:../../libdaisy/src/daisy_seed.h **** 
  16:../../libdaisy/src/daisy_seed.h ****    @ingroup boards
  17:../../libdaisy/src/daisy_seed.h **** */
  18:../../libdaisy/src/daisy_seed.h **** class DaisySeed
  19:../../libdaisy/src/daisy_seed.h **** {
  20:../../libdaisy/src/daisy_seed.h ****   public:
  21:../../libdaisy/src/daisy_seed.h ****     DaisySeed() {}
  22:../../libdaisy/src/daisy_seed.h ****     ~DaisySeed() {}
  30              		.loc 1 22 5 view -0
  31              		.cfi_startproc
  32              		@ args = 0, pretend = 0, frame = 0
  33              		@ frame_needed = 0, uses_anonymous_args = 0
  34              		@ link register save eliminated.
  35              	.LBB148:
  36              	.LBI148:
ARM GAS  /var/folders/0z/b9p8b05s1kb5msq549c5__rh0000gn/T//cciRiJ2K.s 			page 2


  37              		.file 2 "../../libdaisy/src/sys/system.h"
   1:../../libdaisy/src/sys/system.h **** #ifndef DSY_SYSTEM_H
   2:../../libdaisy/src/sys/system.h **** #define DSY_SYSTEM_H
   3:../../libdaisy/src/sys/system.h **** 
   4:../../libdaisy/src/sys/system.h **** #ifndef UNIT_TEST // for unit tests, a dummy implementation is provided below
   5:../../libdaisy/src/sys/system.h **** 
   6:../../libdaisy/src/sys/system.h **** #include <cstdint>
   7:../../libdaisy/src/sys/system.h **** #include "per/tim.h"
   8:../../libdaisy/src/sys/system.h **** 
   9:../../libdaisy/src/sys/system.h **** namespace daisy
  10:../../libdaisy/src/sys/system.h **** {
  11:../../libdaisy/src/sys/system.h **** /** A handle for interacting with the Core System. 
  12:../../libdaisy/src/sys/system.h ****  ** This includes the Clock tree, MPU, global DMA initialization,
  13:../../libdaisy/src/sys/system.h ****  ** cache handling, and any other necessary global initiailzation
  14:../../libdaisy/src/sys/system.h ****  **
  15:../../libdaisy/src/sys/system.h ****  ** @author shensley
  16:../../libdaisy/src/sys/system.h ****  ** @addtogroup system
  17:../../libdaisy/src/sys/system.h ****  */
  18:../../libdaisy/src/sys/system.h **** class System
  19:../../libdaisy/src/sys/system.h **** {
  20:../../libdaisy/src/sys/system.h ****   public:
  21:../../libdaisy/src/sys/system.h ****     /** Contains settings for initializing the System */
  22:../../libdaisy/src/sys/system.h ****     struct Config
  23:../../libdaisy/src/sys/system.h ****     {
  24:../../libdaisy/src/sys/system.h ****         /** Specifies the system clock frequency that feeds APB/AHB clocks, etc. */
  25:../../libdaisy/src/sys/system.h ****         enum class SysClkFreq
  26:../../libdaisy/src/sys/system.h ****         {
  27:../../libdaisy/src/sys/system.h ****             FREQ_400MHZ,
  28:../../libdaisy/src/sys/system.h ****             FREQ_480MHZ,
  29:../../libdaisy/src/sys/system.h ****         };
  30:../../libdaisy/src/sys/system.h **** 
  31:../../libdaisy/src/sys/system.h ****         /** Method to call on the struct to set to defaults
  32:../../libdaisy/src/sys/system.h ****          ** CPU Freq set to 400MHz
  33:../../libdaisy/src/sys/system.h ****          ** Cache Enabled 
  34:../../libdaisy/src/sys/system.h ****          ** */
  35:../../libdaisy/src/sys/system.h ****         void Defaults()
  36:../../libdaisy/src/sys/system.h ****         {
  37:../../libdaisy/src/sys/system.h ****             cpu_freq   = SysClkFreq::FREQ_400MHZ;
  38:../../libdaisy/src/sys/system.h ****             use_dcache = true;
  39:../../libdaisy/src/sys/system.h ****             use_icache = true;
  40:../../libdaisy/src/sys/system.h ****         }
  41:../../libdaisy/src/sys/system.h **** 
  42:../../libdaisy/src/sys/system.h ****         /** Method to call on the struct to set to boost mode:
  43:../../libdaisy/src/sys/system.h ****          ** CPU Freq set to 480MHz
  44:../../libdaisy/src/sys/system.h ****          ** Cache Enabled 
  45:../../libdaisy/src/sys/system.h ****          ** */
  46:../../libdaisy/src/sys/system.h ****         void Boost()
  47:../../libdaisy/src/sys/system.h ****         {
  48:../../libdaisy/src/sys/system.h ****             cpu_freq   = SysClkFreq::FREQ_480MHZ;
  49:../../libdaisy/src/sys/system.h ****             use_dcache = true;
  50:../../libdaisy/src/sys/system.h ****             use_icache = true;
  51:../../libdaisy/src/sys/system.h ****         }
  52:../../libdaisy/src/sys/system.h **** 
  53:../../libdaisy/src/sys/system.h ****         SysClkFreq cpu_freq;
  54:../../libdaisy/src/sys/system.h ****         bool       use_dcache;
  55:../../libdaisy/src/sys/system.h ****         bool       use_icache;
  56:../../libdaisy/src/sys/system.h ****     };
ARM GAS  /var/folders/0z/b9p8b05s1kb5msq549c5__rh0000gn/T//cciRiJ2K.s 			page 3


  57:../../libdaisy/src/sys/system.h **** 
  58:../../libdaisy/src/sys/system.h ****     System() {}
  59:../../libdaisy/src/sys/system.h ****     ~System() {}
  38              		.loc 2 59 5 view .LVU1
  39              		.loc 2 59 5 is_stmt 0 view .LVU2
  40              	.LBE148:
  41              	.LBB149:
  42              	.LBI149:
  43              		.file 3 "../../libdaisy/src/hid/usb.h"
   1:../../libdaisy/src/hid/usb.h **** #pragma once
   2:../../libdaisy/src/hid/usb.h **** #ifndef DSY_HID_USB_H
   3:../../libdaisy/src/hid/usb.h **** #define DSY_HID_USB_H
   4:../../libdaisy/src/hid/usb.h **** #include <stdint.h>
   5:../../libdaisy/src/hid/usb.h **** #include <stdlib.h>
   6:../../libdaisy/src/hid/usb.h **** 
   7:../../libdaisy/src/hid/usb.h **** namespace daisy
   8:../../libdaisy/src/hid/usb.h **** /** @addtogroup externals
   9:../../libdaisy/src/hid/usb.h ****     @{
  10:../../libdaisy/src/hid/usb.h **** */
  11:../../libdaisy/src/hid/usb.h **** 
  12:../../libdaisy/src/hid/usb.h **** {
  13:../../libdaisy/src/hid/usb.h **** /** 
  14:../../libdaisy/src/hid/usb.h ****     @brief Interface for initializing and using the USB Peripherals on the daisy
  15:../../libdaisy/src/hid/usb.h ****     @author Stephen Hensley
  16:../../libdaisy/src/hid/usb.h ****     @date December 2019
  17:../../libdaisy/src/hid/usb.h **** */
  18:../../libdaisy/src/hid/usb.h **** class UsbHandle
  19:../../libdaisy/src/hid/usb.h **** {
  20:../../libdaisy/src/hid/usb.h ****   public:
  21:../../libdaisy/src/hid/usb.h ****     /** Return values for USBHandle Functions */
  22:../../libdaisy/src/hid/usb.h ****     enum class Result
  23:../../libdaisy/src/hid/usb.h ****     {
  24:../../libdaisy/src/hid/usb.h ****         OK,
  25:../../libdaisy/src/hid/usb.h ****         ERR,
  26:../../libdaisy/src/hid/usb.h ****     };
  27:../../libdaisy/src/hid/usb.h **** 
  28:../../libdaisy/src/hid/usb.h ****     /** Specified which of the two USB Peripherals to initialize. */
  29:../../libdaisy/src/hid/usb.h ****     enum UsbPeriph
  30:../../libdaisy/src/hid/usb.h ****     {
  31:../../libdaisy/src/hid/usb.h ****         FS_INTERNAL, /**< Internal pin */
  32:../../libdaisy/src/hid/usb.h ****         FS_EXTERNAL, /**< FS External D+ pin is Pin 38 (GPIO32). FS External D- pin is Pin 37 (GPIO
  33:../../libdaisy/src/hid/usb.h ****         FS_BOTH,     /**< Both */
  34:../../libdaisy/src/hid/usb.h ****     };
  35:../../libdaisy/src/hid/usb.h **** 
  36:../../libdaisy/src/hid/usb.h **** 
  37:../../libdaisy/src/hid/usb.h ****     /** Function called upon reception of a buffer */
  38:../../libdaisy/src/hid/usb.h ****     typedef void (*ReceiveCallback)(uint8_t* buff, uint32_t* len);
  39:../../libdaisy/src/hid/usb.h **** 
  40:../../libdaisy/src/hid/usb.h ****     UsbHandle() {}
  41:../../libdaisy/src/hid/usb.h **** 
  42:../../libdaisy/src/hid/usb.h ****     ~UsbHandle() {}
  44              		.loc 3 42 5 is_stmt 1 view .LVU3
  45              		.loc 3 42 5 is_stmt 0 view .LVU4
  46              	.LBE149:
  47              	.LBB150:
  48              	.LBI150:
  49              		.file 4 "../../libdaisy/src/per/adc.h"
ARM GAS  /var/folders/0z/b9p8b05s1kb5msq549c5__rh0000gn/T//cciRiJ2K.s 			page 4


   1:../../libdaisy/src/per/adc.h **** #pragma once
   2:../../libdaisy/src/per/adc.h **** #ifndef DSY_ADC_H
   3:../../libdaisy/src/per/adc.h **** #define DSY_ADC_H /**< Macro */
   4:../../libdaisy/src/per/adc.h **** #include <stdint.h>
   5:../../libdaisy/src/per/adc.h **** #include <stdlib.h>
   6:../../libdaisy/src/per/adc.h **** #include "daisy_core.h"
   7:../../libdaisy/src/per/adc.h **** #include "per/gpio.h"
   8:../../libdaisy/src/per/adc.h **** 
   9:../../libdaisy/src/per/adc.h **** #define DSY_ADC_MAX_CHANNELS 14 /**< Maximum number of ADC channels */
  10:../../libdaisy/src/per/adc.h **** 
  11:../../libdaisy/src/per/adc.h **** namespace daisy
  12:../../libdaisy/src/per/adc.h **** {
  13:../../libdaisy/src/per/adc.h **** /** @addtogroup analog_digital_conversion
  14:../../libdaisy/src/per/adc.h ****     @{
  15:../../libdaisy/src/per/adc.h **** */
  16:../../libdaisy/src/per/adc.h **** 
  17:../../libdaisy/src/per/adc.h **** /* While there may not be many configuration options here,
  18:../../libdaisy/src/per/adc.h **** using a struct like this allows us to add more configuration
  19:../../libdaisy/src/per/adc.h **** later without breaking existing functionality.
  20:../../libdaisy/src/per/adc.h **** */
  21:../../libdaisy/src/per/adc.h **** 
  22:../../libdaisy/src/per/adc.h **** /** Configuration Structure for a given channel */
  23:../../libdaisy/src/per/adc.h **** struct AdcChannelConfig
  24:../../libdaisy/src/per/adc.h **** {
  25:../../libdaisy/src/per/adc.h ****     /** Which pin to use for multiplexing */
  26:../../libdaisy/src/per/adc.h ****     enum MuxPin
  27:../../libdaisy/src/per/adc.h ****     {
  28:../../libdaisy/src/per/adc.h ****         MUX_SEL_0,    /**< & */
  29:../../libdaisy/src/per/adc.h ****         MUX_SEL_1,    /**< & */
  30:../../libdaisy/src/per/adc.h ****         MUX_SEL_2,    /**< & */
  31:../../libdaisy/src/per/adc.h ****         MUX_SEL_LAST, /**< & */
  32:../../libdaisy/src/per/adc.h ****     };
  33:../../libdaisy/src/per/adc.h **** 
  34:../../libdaisy/src/per/adc.h ****     /** Initializes a single ADC pin as an ADC. 
  35:../../libdaisy/src/per/adc.h ****     \param pin Pin to init.
  36:../../libdaisy/src/per/adc.h ****      */
  37:../../libdaisy/src/per/adc.h ****     void InitSingle(dsy_gpio_pin pin);
  38:../../libdaisy/src/per/adc.h **** 
  39:../../libdaisy/src/per/adc.h ****     /** 
  40:../../libdaisy/src/per/adc.h ****     Initializes a single ADC pin as a Multiplexed ADC.
  41:../../libdaisy/src/per/adc.h ****     Requires a CD405X Multiplexer connected to the pin.
  42:../../libdaisy/src/per/adc.h ****     You only need to supply the mux pins that are required,
  43:../../libdaisy/src/per/adc.h ****     e.g. a 4052 mux would only require mux_0 and mux_1.
  44:../../libdaisy/src/per/adc.h ****     Internal Callbacks handle the pin addressing.
  45:../../libdaisy/src/per/adc.h ****     \param mux_channels must be 1-8
  46:../../libdaisy/src/per/adc.h ****     \param mux_0 First mux pin
  47:../../libdaisy/src/per/adc.h ****     \param mux_1 Second mux pin
  48:../../libdaisy/src/per/adc.h ****     \param mux_2 Third mux pin
  49:../../libdaisy/src/per/adc.h ****     \param adc_pin &
  50:../../libdaisy/src/per/adc.h ****     */
  51:../../libdaisy/src/per/adc.h ****     void InitMux(dsy_gpio_pin adc_pin,
  52:../../libdaisy/src/per/adc.h ****                  size_t       mux_channels,
  53:../../libdaisy/src/per/adc.h ****                  dsy_gpio_pin mux_0,
  54:../../libdaisy/src/per/adc.h ****                  dsy_gpio_pin mux_1 = {DSY_GPIOX, 0},
  55:../../libdaisy/src/per/adc.h ****                  dsy_gpio_pin mux_2 = {DSY_GPIOX, 0});
  56:../../libdaisy/src/per/adc.h **** 
  57:../../libdaisy/src/per/adc.h ****     dsy_gpio pin_;                   /**< & */
ARM GAS  /var/folders/0z/b9p8b05s1kb5msq549c5__rh0000gn/T//cciRiJ2K.s 			page 5


  58:../../libdaisy/src/per/adc.h ****     dsy_gpio mux_pin_[MUX_SEL_LAST]; /**< & */
  59:../../libdaisy/src/per/adc.h ****     uint8_t  mux_channels_;          /**< & */
  60:../../libdaisy/src/per/adc.h **** };
  61:../../libdaisy/src/per/adc.h **** 
  62:../../libdaisy/src/per/adc.h **** /**
  63:../../libdaisy/src/per/adc.h ****    Handler for analog to digital conversion
  64:../../libdaisy/src/per/adc.h **** */
  65:../../libdaisy/src/per/adc.h **** class AdcHandle
  66:../../libdaisy/src/per/adc.h **** {
  67:../../libdaisy/src/per/adc.h ****   public:
  68:../../libdaisy/src/per/adc.h ****     /** Supported oversampling amounts */
  69:../../libdaisy/src/per/adc.h ****     enum OverSampling
  70:../../libdaisy/src/per/adc.h ****     {
  71:../../libdaisy/src/per/adc.h ****         OVS_NONE, /**< & */
  72:../../libdaisy/src/per/adc.h ****         OVS_4,    /**< & */
  73:../../libdaisy/src/per/adc.h ****         OVS_8,    /**< & */
  74:../../libdaisy/src/per/adc.h ****         OVS_16,   /**< & */
  75:../../libdaisy/src/per/adc.h ****         OVS_32,   /**< & */
  76:../../libdaisy/src/per/adc.h ****         OVS_64,   /**< & */
  77:../../libdaisy/src/per/adc.h ****         OVS_128,  /**< & */
  78:../../libdaisy/src/per/adc.h ****         OVS_256,  /**< & */
  79:../../libdaisy/src/per/adc.h ****         OVS_512,  /**< & */
  80:../../libdaisy/src/per/adc.h ****         OVS_1024, /**< & */
  81:../../libdaisy/src/per/adc.h ****         OVS_LAST, /**< & */
  82:../../libdaisy/src/per/adc.h ****     };
  83:../../libdaisy/src/per/adc.h **** 
  84:../../libdaisy/src/per/adc.h ****     AdcHandle() {}
  85:../../libdaisy/src/per/adc.h ****     ~AdcHandle() {}
  50              		.loc 4 85 5 is_stmt 1 view .LVU5
  51              		.loc 4 85 5 is_stmt 0 view .LVU6
  52              	.LBE150:
  53              	.LBB151:
  54              	.LBI151:
  55              		.file 5 "../../libdaisy/src/hid/audio.h"
   1:../../libdaisy/src/hid/audio.h **** #ifndef DSY_AUDIO_H
   2:../../libdaisy/src/hid/audio.h **** #define DSY_AUDIO_H /**< & */
   3:../../libdaisy/src/hid/audio.h **** 
   4:../../libdaisy/src/hid/audio.h **** #include "per/sai.h"
   5:../../libdaisy/src/hid/audio.h **** 
   6:../../libdaisy/src/hid/audio.h **** namespace daisy
   7:../../libdaisy/src/hid/audio.h **** {
   8:../../libdaisy/src/hid/audio.h **** class AudioHandle
   9:../../libdaisy/src/hid/audio.h **** {
  10:../../libdaisy/src/hid/audio.h ****   public:
  11:../../libdaisy/src/hid/audio.h ****     /** Manually configurable details about the Audio Engine */
  12:../../libdaisy/src/hid/audio.h ****     /** TODO: Figure out how to get samplerate in here. */
  13:../../libdaisy/src/hid/audio.h ****     struct Config
  14:../../libdaisy/src/hid/audio.h ****     {
  15:../../libdaisy/src/hid/audio.h ****         size_t                        blocksize;
  16:../../libdaisy/src/hid/audio.h ****         SaiHandle::Config::SampleRate samplerate;
  17:../../libdaisy/src/hid/audio.h ****         float                         postgain;
  18:../../libdaisy/src/hid/audio.h ****     };
  19:../../libdaisy/src/hid/audio.h **** 
  20:../../libdaisy/src/hid/audio.h ****     enum class Result
  21:../../libdaisy/src/hid/audio.h ****     {
  22:../../libdaisy/src/hid/audio.h ****         OK,
  23:../../libdaisy/src/hid/audio.h ****         ERR,
ARM GAS  /var/folders/0z/b9p8b05s1kb5msq549c5__rh0000gn/T//cciRiJ2K.s 			page 6


  24:../../libdaisy/src/hid/audio.h ****     };
  25:../../libdaisy/src/hid/audio.h **** 
  26:../../libdaisy/src/hid/audio.h ****     /** Non-Interleaving input buffer
  27:../../libdaisy/src/hid/audio.h ****      * Buffer arranged by float[chn][sample] 
  28:../../libdaisy/src/hid/audio.h ****      * const so that the user can't modify the input
  29:../../libdaisy/src/hid/audio.h ****     */
  30:../../libdaisy/src/hid/audio.h ****     typedef const float* const* InputBuffer;
  31:../../libdaisy/src/hid/audio.h **** 
  32:../../libdaisy/src/hid/audio.h ****     /** Non-Interleaving output buffer
  33:../../libdaisy/src/hid/audio.h ****      * Arranged by float[chn][sample] 
  34:../../libdaisy/src/hid/audio.h ****     */
  35:../../libdaisy/src/hid/audio.h ****     typedef float** OutputBuffer;
  36:../../libdaisy/src/hid/audio.h **** 
  37:../../libdaisy/src/hid/audio.h ****     /** Type for a Non-Interleaving audio callback 
  38:../../libdaisy/src/hid/audio.h ****    * Non-Interleaving audio callbacks in daisy will be of this type
  39:../../libdaisy/src/hid/audio.h ****   */
  40:../../libdaisy/src/hid/audio.h ****     typedef void (*AudioCallback)(InputBuffer  in,
  41:../../libdaisy/src/hid/audio.h ****                                   OutputBuffer out,
  42:../../libdaisy/src/hid/audio.h ****                                   size_t       size);
  43:../../libdaisy/src/hid/audio.h **** 
  44:../../libdaisy/src/hid/audio.h ****     /** Interleaving Input buffer
  45:../../libdaisy/src/hid/audio.h ****      ** audio is prepared as { L0, R0, L1, R1, . . . LN, RN }]
  46:../../libdaisy/src/hid/audio.h ****      ** this is const, as the user shouldn't modify it
  47:../../libdaisy/src/hid/audio.h ****     */
  48:../../libdaisy/src/hid/audio.h ****     typedef const float* InterleavingInputBuffer;
  49:../../libdaisy/src/hid/audio.h **** 
  50:../../libdaisy/src/hid/audio.h ****     /** Interleaving Output buffer 
  51:../../libdaisy/src/hid/audio.h ****      ** audio is prepared as { L0, R0, L1, R1, . . . LN, RN }
  52:../../libdaisy/src/hid/audio.h ****     */
  53:../../libdaisy/src/hid/audio.h ****     typedef float* InterleavingOutputBuffer;
  54:../../libdaisy/src/hid/audio.h **** 
  55:../../libdaisy/src/hid/audio.h ****     /** Interleaving Audio Callback 
  56:../../libdaisy/src/hid/audio.h ****    * Interleaving audio callbacks in daisy must be of this type
  57:../../libdaisy/src/hid/audio.h ****   */
  58:../../libdaisy/src/hid/audio.h ****     typedef void (*InterleavingAudioCallback)(InterleavingInputBuffer  in,
  59:../../libdaisy/src/hid/audio.h ****                                               InterleavingOutputBuffer out,
  60:../../libdaisy/src/hid/audio.h ****                                               size_t                   size);
  61:../../libdaisy/src/hid/audio.h **** 
  62:../../libdaisy/src/hid/audio.h ****     AudioHandle() : pimpl_(nullptr) {}
  63:../../libdaisy/src/hid/audio.h ****     ~AudioHandle() {}
  56              		.loc 5 63 5 is_stmt 1 view .LVU7
  57              		.loc 5 63 5 is_stmt 0 view .LVU8
  58              	.LBE151:
  59              		.loc 1 22 19 view .LVU9
  60 0000 7047     		bx	lr
  61              		.cfi_endproc
  62              	.LFE2013:
  64              		.weak	_ZN5daisy9DaisySeedD1Ev
  65              		.thumb_set _ZN5daisy9DaisySeedD1Ev,_ZN5daisy9DaisySeedD2Ev
  66 0002 00BF     		.section	.text._ZN7daisysp10OscillatorD2Ev,"axG",%progbits,_ZN7daisysp10OscillatorD5Ev,comdat
  67              		.align	1
  68              		.p2align 2,,3
  69              		.weak	_ZN7daisysp10OscillatorD2Ev
  70              		.syntax unified
  71              		.thumb
  72              		.thumb_func
  73              		.fpu fpv5-d16
ARM GAS  /var/folders/0z/b9p8b05s1kb5msq549c5__rh0000gn/T//cciRiJ2K.s 			page 7


  75              	_ZN7daisysp10OscillatorD2Ev:
  76              	.LVL1:
  77              	.LFB3703:
  78              		.file 6 "../../DaisySP/Source/Synthesis/oscillator.h"
   1:../../DaisySP/Source/Synthesis/oscillator.h **** #pragma once
   2:../../DaisySP/Source/Synthesis/oscillator.h **** #ifndef DSY_OSCILLATOR_H
   3:../../DaisySP/Source/Synthesis/oscillator.h **** #define DSY_OSCILLATOR_H
   4:../../DaisySP/Source/Synthesis/oscillator.h **** #include <stdint.h>
   5:../../DaisySP/Source/Synthesis/oscillator.h **** #include "Utility/dsp.h"
   6:../../DaisySP/Source/Synthesis/oscillator.h **** #ifdef __cplusplus
   7:../../DaisySP/Source/Synthesis/oscillator.h **** 
   8:../../DaisySP/Source/Synthesis/oscillator.h **** namespace daisysp
   9:../../DaisySP/Source/Synthesis/oscillator.h **** {
  10:../../DaisySP/Source/Synthesis/oscillator.h **** /** Synthesis of several waveforms, including polyBLEP bandlimited waveforms.
  11:../../DaisySP/Source/Synthesis/oscillator.h **** */
  12:../../DaisySP/Source/Synthesis/oscillator.h **** class Oscillator
  13:../../DaisySP/Source/Synthesis/oscillator.h **** {
  14:../../DaisySP/Source/Synthesis/oscillator.h ****   public:
  15:../../DaisySP/Source/Synthesis/oscillator.h ****     Oscillator() {}
  16:../../DaisySP/Source/Synthesis/oscillator.h ****     ~Oscillator() {}
  79              		.loc 6 16 5 is_stmt 1 view -0
  80              		.cfi_startproc
  81              		@ args = 0, pretend = 0, frame = 0
  82              		@ frame_needed = 0, uses_anonymous_args = 0
  83              		@ link register save eliminated.
  84              		.loc 6 16 20 is_stmt 0 view .LVU11
  85 0000 7047     		bx	lr
  86              		.cfi_endproc
  87              	.LFE3703:
  89              		.weak	_ZN7daisysp10OscillatorD1Ev
  90              		.thumb_set _ZN7daisysp10OscillatorD1Ev,_ZN7daisysp10OscillatorD2Ev
  91 0002 00BF     		.section	.text._ZN5daisy11MidiHandlerINS_17MidiUartTransportEED2Ev,"axG",%progbits,_ZN5daisy11Midi
  92              		.align	1
  93              		.p2align 2,,3
  94              		.weak	_ZN5daisy11MidiHandlerINS_17MidiUartTransportEED2Ev
  95              		.syntax unified
  96              		.thumb
  97              		.thumb_func
  98              		.fpu fpv5-d16
 100              	_ZN5daisy11MidiHandlerINS_17MidiUartTransportEED2Ev:
 101              	.LVL2:
 102              	.LFB4831:
 103              		.file 7 "../../libdaisy/src/hid/midi.h"
   1:../../libdaisy/src/hid/midi.h **** #pragma once
   2:../../libdaisy/src/hid/midi.h **** #ifndef DSY_MIDI_H
   3:../../libdaisy/src/hid/midi.h **** #define DSY_MIDI_H
   4:../../libdaisy/src/hid/midi.h **** 
   5:../../libdaisy/src/hid/midi.h **** // TODO: make this adjustable
   6:../../libdaisy/src/hid/midi.h **** #define SYSEX_BUFFER_LEN 128
   7:../../libdaisy/src/hid/midi.h **** 
   8:../../libdaisy/src/hid/midi.h **** #include <stdint.h>
   9:../../libdaisy/src/hid/midi.h **** #include <stdlib.h>
  10:../../libdaisy/src/hid/midi.h **** #include "per/uart.h"
  11:../../libdaisy/src/hid/midi.h **** #include "util/ringbuffer.h"
  12:../../libdaisy/src/hid/midi.h **** #include "hid/MidiEvent.h"
  13:../../libdaisy/src/hid/midi.h **** #include "sys/system.h"
  14:../../libdaisy/src/hid/midi.h **** 
ARM GAS  /var/folders/0z/b9p8b05s1kb5msq549c5__rh0000gn/T//cciRiJ2K.s 			page 8


  15:../../libdaisy/src/hid/midi.h **** namespace daisy
  16:../../libdaisy/src/hid/midi.h **** {
  17:../../libdaisy/src/hid/midi.h **** /** @addtogroup external 
  18:../../libdaisy/src/hid/midi.h ****     @{ 
  19:../../libdaisy/src/hid/midi.h **** */
  20:../../libdaisy/src/hid/midi.h **** 
  21:../../libdaisy/src/hid/midi.h **** class MidiUartTransport
  22:../../libdaisy/src/hid/midi.h **** {
  23:../../libdaisy/src/hid/midi.h ****   public:
  24:../../libdaisy/src/hid/midi.h ****     MidiUartTransport() {}
  25:../../libdaisy/src/hid/midi.h ****     ~MidiUartTransport() {}
  26:../../libdaisy/src/hid/midi.h **** 
  27:../../libdaisy/src/hid/midi.h ****     struct Config
  28:../../libdaisy/src/hid/midi.h ****     {
  29:../../libdaisy/src/hid/midi.h ****         UartHandler::Config::Peripheral periph;
  30:../../libdaisy/src/hid/midi.h ****         dsy_gpio_pin                    rx;
  31:../../libdaisy/src/hid/midi.h ****         dsy_gpio_pin                    tx;
  32:../../libdaisy/src/hid/midi.h **** 
  33:../../libdaisy/src/hid/midi.h ****         Config()
  34:../../libdaisy/src/hid/midi.h ****         {
  35:../../libdaisy/src/hid/midi.h ****             periph = UartHandler::Config::Peripheral::USART_1;
  36:../../libdaisy/src/hid/midi.h ****             rx     = {DSY_GPIOB, 7};
  37:../../libdaisy/src/hid/midi.h ****             tx     = {DSY_GPIOB, 6};
  38:../../libdaisy/src/hid/midi.h ****         }
  39:../../libdaisy/src/hid/midi.h ****     };
  40:../../libdaisy/src/hid/midi.h **** 
  41:../../libdaisy/src/hid/midi.h ****     inline void Init(Config config)
  42:../../libdaisy/src/hid/midi.h ****     {
  43:../../libdaisy/src/hid/midi.h ****         UartHandler::Config uart_config;
  44:../../libdaisy/src/hid/midi.h **** 
  45:../../libdaisy/src/hid/midi.h ****         //defaults
  46:../../libdaisy/src/hid/midi.h ****         uart_config.baudrate   = 31250;
  47:../../libdaisy/src/hid/midi.h ****         uart_config.stopbits   = UartHandler::Config::StopBits::BITS_1;
  48:../../libdaisy/src/hid/midi.h ****         uart_config.parity     = UartHandler::Config::Parity::NONE;
  49:../../libdaisy/src/hid/midi.h ****         uart_config.mode       = UartHandler::Config::Mode::TX_RX;
  50:../../libdaisy/src/hid/midi.h ****         uart_config.wordlength = UartHandler::Config::WordLength::BITS_8;
  51:../../libdaisy/src/hid/midi.h **** 
  52:../../libdaisy/src/hid/midi.h ****         //user settings
  53:../../libdaisy/src/hid/midi.h ****         uart_config.periph        = config.periph;
  54:../../libdaisy/src/hid/midi.h ****         uart_config.pin_config.rx = config.rx;
  55:../../libdaisy/src/hid/midi.h ****         uart_config.pin_config.tx = config.tx;
  56:../../libdaisy/src/hid/midi.h **** 
  57:../../libdaisy/src/hid/midi.h ****         uart_.Init(uart_config);
  58:../../libdaisy/src/hid/midi.h ****     }
  59:../../libdaisy/src/hid/midi.h **** 
  60:../../libdaisy/src/hid/midi.h ****     inline void    StartRx() { uart_.StartRx(); }
  61:../../libdaisy/src/hid/midi.h ****     inline size_t  Readable() { return uart_.Readable(); }
  62:../../libdaisy/src/hid/midi.h ****     inline uint8_t Rx() { return uart_.PopRx(); }
  63:../../libdaisy/src/hid/midi.h ****     inline bool    RxActive() { return uart_.RxActive(); }
  64:../../libdaisy/src/hid/midi.h ****     inline void    FlushRx() { uart_.FlushRx(); }
  65:../../libdaisy/src/hid/midi.h ****     inline void    Tx(uint8_t* buff, size_t size) { uart_.PollTx(buff, size); }
  66:../../libdaisy/src/hid/midi.h **** 
  67:../../libdaisy/src/hid/midi.h ****   private:
  68:../../libdaisy/src/hid/midi.h ****     UartHandler uart_;
  69:../../libdaisy/src/hid/midi.h **** };
  70:../../libdaisy/src/hid/midi.h **** 
  71:../../libdaisy/src/hid/midi.h **** /** 
ARM GAS  /var/folders/0z/b9p8b05s1kb5msq549c5__rh0000gn/T//cciRiJ2K.s 			page 9


  72:../../libdaisy/src/hid/midi.h ****     @brief Simple MIDI Handler \n 
  73:../../libdaisy/src/hid/midi.h ****     Parses bytes from an input into valid MidiEvents. \n 
  74:../../libdaisy/src/hid/midi.h ****     The MidiEvents fill a FIFO queue that the user can pop messages from.
  75:../../libdaisy/src/hid/midi.h ****     @author shensley
  76:../../libdaisy/src/hid/midi.h ****     @date March 2020
  77:../../libdaisy/src/hid/midi.h **** */
  78:../../libdaisy/src/hid/midi.h **** template <typename Transport>
  79:../../libdaisy/src/hid/midi.h **** class MidiHandler
  80:../../libdaisy/src/hid/midi.h **** {
  81:../../libdaisy/src/hid/midi.h ****   public:
  82:../../libdaisy/src/hid/midi.h ****     MidiHandler() {}
  83:../../libdaisy/src/hid/midi.h ****     ~MidiHandler() {}
 104              		.loc 7 83 5 is_stmt 1 view -0
 105              		.cfi_startproc
 106              		@ args = 0, pretend = 0, frame = 0
 107              		@ frame_needed = 0, uses_anonymous_args = 0
 108              		@ link register save eliminated.
 109              	.LBB152:
 110              	.LBI152:
  25:../../libdaisy/src/hid/midi.h **** 
 111              		.loc 7 25 5 view .LVU13
  25:../../libdaisy/src/hid/midi.h **** 
 112              		.loc 7 25 5 is_stmt 0 view .LVU14
 113              	.LBE152:
 114              		.loc 7 83 21 view .LVU15
 115 0000 7047     		bx	lr
 116              		.cfi_endproc
 117              	.LFE4831:
 119              		.weak	_ZN5daisy11MidiHandlerINS_17MidiUartTransportEED1Ev
 120              		.thumb_set _ZN5daisy11MidiHandlerINS_17MidiUartTransportEED1Ev,_ZN5daisy11MidiHandlerINS_17MidiUar
 121 0002 00BF     		.section	.text._Z13AudioCallbackPKfPfj,"ax",%progbits
 122              		.align	1
 123              		.p2align 2,,3
 124              		.global	_Z13AudioCallbackPKfPfj
 125              		.syntax unified
 126              		.thumb
 127              		.thumb_func
 128              		.fpu fpv5-d16
 130              	_Z13AudioCallbackPKfPfj:
 131              	.LVL3:
 132              	.LFB4248:
 133              		.file 8 "DrumModule.cpp"
   1:DrumModule.cpp **** #include "daisy_seed.h"
   2:DrumModule.cpp **** #include "daisysp.h"
   3:DrumModule.cpp **** 
   4:DrumModule.cpp **** // Use the daisy namespace to prevent having to type
   5:DrumModule.cpp **** // daisy:: before all libdaisy functions
   6:DrumModule.cpp **** using namespace daisy;
   7:DrumModule.cpp **** using namespace daisysp;
   8:DrumModule.cpp **** 
   9:DrumModule.cpp **** // Declare a DaisySeed object called hardware
  10:DrumModule.cpp **** DaisySeed  hardware;
  11:DrumModule.cpp **** Oscillator osc;
  12:DrumModule.cpp **** 
  13:DrumModule.cpp **** class Decay {
  14:DrumModule.cpp **** public:
  15:DrumModule.cpp ****     void Init(float sampleRate) {
ARM GAS  /var/folders/0z/b9p8b05s1kb5msq549c5__rh0000gn/T//cciRiJ2K.s 			page 10


  16:DrumModule.cpp ****         this->sampleRate = sampleRate;
  17:DrumModule.cpp ****     }
  18:DrumModule.cpp **** 
  19:DrumModule.cpp ****     void SetTime(float time) {
  20:DrumModule.cpp ****         time = fmaxf(time, 0.000001f);
  21:DrumModule.cpp ****         increment = 1.f / (time * sampleRate);
  22:DrumModule.cpp ****     }
  23:DrumModule.cpp **** 
  24:DrumModule.cpp ****     float Process() {
  25:DrumModule.cpp ****         if (trig) {
  26:DrumModule.cpp ****             trig = false;
  27:DrumModule.cpp ****             value = 1.0f;
  28:DrumModule.cpp ****         }
  29:DrumModule.cpp ****         if (value > 0) {
  30:DrumModule.cpp ****             value = value - increment;
  31:DrumModule.cpp ****             return value * value;
  32:DrumModule.cpp ****         } else {
  33:DrumModule.cpp ****             return 0;
  34:DrumModule.cpp ****         }
  35:DrumModule.cpp ****     }
  36:DrumModule.cpp **** 
  37:DrumModule.cpp ****     void Trig() {
  38:DrumModule.cpp ****         trig = true;    
  39:DrumModule.cpp ****     }
  40:DrumModule.cpp **** private:
  41:DrumModule.cpp ****     float sampleRate = 44100;
  42:DrumModule.cpp ****     float value = 0.f; 
  43:DrumModule.cpp ****     bool trig = false;
  44:DrumModule.cpp ****     float increment = 0.001;
  45:DrumModule.cpp **** };
  46:DrumModule.cpp **** 
  47:DrumModule.cpp **** bool gate = false;
  48:DrumModule.cpp **** float basePitch = 60;
  49:DrumModule.cpp **** 
  50:DrumModule.cpp **** Decay pitchEnv;
  51:DrumModule.cpp **** Decay ampEnv;
  52:DrumModule.cpp **** 
  53:DrumModule.cpp **** MidiUartHandler midi;
  54:DrumModule.cpp **** 
  55:DrumModule.cpp **** void AudioCallback(AudioHandle::InterleavingInputBuffer  in,
  56:DrumModule.cpp ****                    AudioHandle::InterleavingOutputBuffer out,
  57:DrumModule.cpp ****                    size_t                                size)
  58:DrumModule.cpp **** {
 134              		.loc 8 58 1 is_stmt 1 view -0
 135              		.cfi_startproc
 136              		@ args = 0, pretend = 0, frame = 0
 137              		@ frame_needed = 0, uses_anonymous_args = 0
  59:DrumModule.cpp **** 
  60:DrumModule.cpp ****     //Fill the block with samples
  61:DrumModule.cpp ****     for(size_t i = 0; i < size; i += 2)
 138              		.loc 8 61 5 view .LVU17
 139              	.LBB163:
 140              		.loc 8 61 25 view .LVU18
 141 0000 002A     		cmp	r2, #0
 142 0002 73D0     		beq	.L22
 143 0004 013A     		subs	r2, r2, #1
 144              	.LVL4:
ARM GAS  /var/folders/0z/b9p8b05s1kb5msq549c5__rh0000gn/T//cciRiJ2K.s 			page 11


 145              		.loc 8 61 25 is_stmt 0 view .LVU19
 146              	.LBE163:
  58:DrumModule.cpp **** 
 147              		.loc 8 58 1 view .LVU20
 148 0006 2DE9F047 		push	{r4, r5, r6, r7, r8, r9, r10, lr}
 149              		.cfi_def_cfa_offset 32
 150              		.cfi_offset 4, -32
 151              		.cfi_offset 5, -28
 152              		.cfi_offset 6, -24
 153              		.cfi_offset 7, -20
 154              		.cfi_offset 8, -16
 155              		.cfi_offset 9, -12
 156              		.cfi_offset 10, -8
 157              		.cfi_offset 14, -4
 158 000a 0C46     		mov	r4, r1
 159              	.LBB192:
 160              		.loc 8 61 25 view .LVU21
 161 000c 0027     		movs	r7, #0
 162 000e 384E     		ldr	r6, .L26
 163 0010 4FEA5209 		lsr	r9, r2, #1
 164 0014 DFF8F0A0 		ldr	r10, .L26+24
 165 0018 DFF8E480 		ldr	r8, .L26+16
 166 001c 354D     		ldr	r5, .L26+4
 167 001e 4CE0     		b	.L16
 168              	.LVL5:
 169              	.L25:
 170              	.LBB164:
 171              	.LBB165:
 172              	.LBB166:
  26:DrumModule.cpp ****             value = 1.0f;
 173              		.loc 8 26 13 is_stmt 1 view .LVU22
  29:DrumModule.cpp ****             value = value - increment;
 174              		.loc 8 29 13 is_stmt 0 view .LVU23
 175 0020 B7EE007A 		vmov.f32	s14, #1.0e+0
  26:DrumModule.cpp ****             value = 1.0f;
 176              		.loc 8 26 18 view .LVU24
 177 0024 0023     		movs	r3, #0
 178 0026 3372     		strb	r3, [r6, #8]
  27:DrumModule.cpp ****         }
 179              		.loc 8 27 13 is_stmt 1 view .LVU25
  29:DrumModule.cpp ****             value = value - increment;
 180              		.loc 8 29 9 view .LVU26
 181              	.L8:
  30:DrumModule.cpp ****             return value * value;
 182              		.loc 8 30 13 view .LVU27
  30:DrumModule.cpp ****             return value * value;
 183              		.loc 8 30 27 is_stmt 0 view .LVU28
 184 0028 D6ED037A 		vldr.32	s15, [r6, #12]
 185              	.LBE166:
 186              	.LBE165:
  62:DrumModule.cpp ****     {
  63:DrumModule.cpp ****         //Get the next envelope value
  64:DrumModule.cpp ****         //get the next oscillator sample
  65:DrumModule.cpp ****     
  66:DrumModule.cpp ****         int pitch = basePitch + pitchEnv.Process() * 24;
 187              		.loc 8 66 52 view .LVU29
 188 002c F3EE086A 		vmov.f32	s13, #2.4e+1
ARM GAS  /var/folders/0z/b9p8b05s1kb5msq549c5__rh0000gn/T//cciRiJ2K.s 			page 12


 189              	.LBB169:
 190              	.LBB167:
  30:DrumModule.cpp ****             return value * value;
 191              		.loc 8 30 27 view .LVU30
 192 0030 37EE677A 		vsub.f32	s14, s14, s15
  31:DrumModule.cpp ****         } else {
 193              		.loc 8 31 28 view .LVU31
 194 0034 67EE077A 		vmul.f32	s15, s14, s14
  30:DrumModule.cpp ****             return value * value;
 195              		.loc 8 30 19 view .LVU32
 196 0038 86ED017A 		vstr.32	s14, [r6, #4]
  31:DrumModule.cpp ****         } else {
 197              		.loc 8 31 13 is_stmt 1 view .LVU33
 198              	.LBE167:
 199              	.LBE169:
 200              		.loc 8 66 52 is_stmt 0 view .LVU34
 201 003c 67EEA67A 		vmul.f32	s15, s15, s13
 202              	.L9:
 203              	.LVL6:
  67:DrumModule.cpp **** 
  68:DrumModule.cpp ****         osc.SetFreq(mtof(pitch));
 204              		.loc 8 68 9 is_stmt 1 view .LVU35
 205              	.LBB170:
 206              	.LBI170:
 207              		.file 9 "../../DaisySP/Source/Utility/dsp.h"
   1:../../DaisySP/Source/Utility/dsp.h **** /** Helpful defines, functions, and other utilities for use in/with daisysp modules.
   2:../../DaisySP/Source/Utility/dsp.h **** */
   3:../../DaisySP/Source/Utility/dsp.h **** #pragma once
   4:../../DaisySP/Source/Utility/dsp.h **** #ifndef DSY_CORE_DSP
   5:../../DaisySP/Source/Utility/dsp.h **** #define DSY_CORE_DSP
   6:../../DaisySP/Source/Utility/dsp.h **** #include <cassert>
   7:../../DaisySP/Source/Utility/dsp.h **** #include <cstdint>
   8:../../DaisySP/Source/Utility/dsp.h **** #include <random>
   9:../../DaisySP/Source/Utility/dsp.h **** #include <cmath>
  10:../../DaisySP/Source/Utility/dsp.h **** 
  11:../../DaisySP/Source/Utility/dsp.h **** /** PIs
  12:../../DaisySP/Source/Utility/dsp.h **** */
  13:../../DaisySP/Source/Utility/dsp.h **** #define PI_F 3.1415927410125732421875f
  14:../../DaisySP/Source/Utility/dsp.h **** #define TWOPI_F (2.0f * PI_F)
  15:../../DaisySP/Source/Utility/dsp.h **** #define HALFPI_F (PI_F * 0.5f)
  16:../../DaisySP/Source/Utility/dsp.h **** #define DSY_MIN(in, mn) (in < mn ? in : mn)
  17:../../DaisySP/Source/Utility/dsp.h **** #define DSY_MAX(in, mx) (in > mx ? in : mx)
  18:../../DaisySP/Source/Utility/dsp.h **** #define DSY_CLAMP(in, mn, mx) (DSY_MIN(DSY_MAX(in, mn), mx))
  19:../../DaisySP/Source/Utility/dsp.h **** #define DSY_COUNTOF(_arr) (sizeof(_arr) / sizeof(_arr[0]))
  20:../../DaisySP/Source/Utility/dsp.h **** 
  21:../../DaisySP/Source/Utility/dsp.h **** namespace daisysp
  22:../../DaisySP/Source/Utility/dsp.h **** {
  23:../../DaisySP/Source/Utility/dsp.h **** //Avoids division for random floats. e.g. rand() * kRandFrac
  24:../../DaisySP/Source/Utility/dsp.h **** static constexpr float kRandFrac = 1.f / (float)RAND_MAX;
  25:../../DaisySP/Source/Utility/dsp.h **** 
  26:../../DaisySP/Source/Utility/dsp.h **** //Convert from semitones to other units. e.g. 2 ^ (kOneTwelfth * x)
  27:../../DaisySP/Source/Utility/dsp.h **** static constexpr float kOneTwelfth = 1.f / 12.f;
  28:../../DaisySP/Source/Utility/dsp.h **** 
  29:../../DaisySP/Source/Utility/dsp.h **** /** efficient floating point min/max
  30:../../DaisySP/Source/Utility/dsp.h **** c/o stephen mccaul
  31:../../DaisySP/Source/Utility/dsp.h **** */
  32:../../DaisySP/Source/Utility/dsp.h **** inline float fmax(float a, float b)
ARM GAS  /var/folders/0z/b9p8b05s1kb5msq549c5__rh0000gn/T//cciRiJ2K.s 			page 13


  33:../../DaisySP/Source/Utility/dsp.h **** {
  34:../../DaisySP/Source/Utility/dsp.h ****     float r;
  35:../../DaisySP/Source/Utility/dsp.h **** #ifdef __arm__
  36:../../DaisySP/Source/Utility/dsp.h ****     asm("vmaxnm.f32 %[d], %[n], %[m]" : [d] "=t"(r) : [n] "t"(a), [m] "t"(b) :);
  37:../../DaisySP/Source/Utility/dsp.h **** #else
  38:../../DaisySP/Source/Utility/dsp.h ****     r = (a > b) ? a : b;
  39:../../DaisySP/Source/Utility/dsp.h **** #endif // __arm__
  40:../../DaisySP/Source/Utility/dsp.h ****     return r;
  41:../../DaisySP/Source/Utility/dsp.h **** }
  42:../../DaisySP/Source/Utility/dsp.h **** 
  43:../../DaisySP/Source/Utility/dsp.h **** inline float fmin(float a, float b)
  44:../../DaisySP/Source/Utility/dsp.h **** {
  45:../../DaisySP/Source/Utility/dsp.h ****     float r;
  46:../../DaisySP/Source/Utility/dsp.h **** #ifdef __arm__
  47:../../DaisySP/Source/Utility/dsp.h ****     asm("vminnm.f32 %[d], %[n], %[m]" : [d] "=t"(r) : [n] "t"(a), [m] "t"(b) :);
  48:../../DaisySP/Source/Utility/dsp.h **** #else
  49:../../DaisySP/Source/Utility/dsp.h ****     r = (a < b) ? a : b;
  50:../../DaisySP/Source/Utility/dsp.h **** #endif // __arm__
  51:../../DaisySP/Source/Utility/dsp.h ****     return r;
  52:../../DaisySP/Source/Utility/dsp.h **** }
  53:../../DaisySP/Source/Utility/dsp.h **** 
  54:../../DaisySP/Source/Utility/dsp.h **** /** quick fp clamp
  55:../../DaisySP/Source/Utility/dsp.h **** */
  56:../../DaisySP/Source/Utility/dsp.h **** inline float fclamp(float in, float min, float max)
  57:../../DaisySP/Source/Utility/dsp.h **** {
  58:../../DaisySP/Source/Utility/dsp.h ****     return fmin(fmax(in, min), max);
  59:../../DaisySP/Source/Utility/dsp.h **** }
  60:../../DaisySP/Source/Utility/dsp.h **** 
  61:../../DaisySP/Source/Utility/dsp.h **** /** From Musicdsp.org "Fast power and root estimates for 32bit floats)
  62:../../DaisySP/Source/Utility/dsp.h **** Original code by Stefan Stenzel
  63:../../DaisySP/Source/Utility/dsp.h **** These are approximations
  64:../../DaisySP/Source/Utility/dsp.h **** */
  65:../../DaisySP/Source/Utility/dsp.h **** inline float fastpower(float f, int n)
  66:../../DaisySP/Source/Utility/dsp.h **** {
  67:../../DaisySP/Source/Utility/dsp.h ****     long *lp, l;
  68:../../DaisySP/Source/Utility/dsp.h ****     lp = (long *)(&f);
  69:../../DaisySP/Source/Utility/dsp.h ****     l  = *lp;
  70:../../DaisySP/Source/Utility/dsp.h ****     l -= 0x3F800000;
  71:../../DaisySP/Source/Utility/dsp.h ****     l <<= (n - 1);
  72:../../DaisySP/Source/Utility/dsp.h ****     l += 0x3F800000;
  73:../../DaisySP/Source/Utility/dsp.h ****     *lp = l;
  74:../../DaisySP/Source/Utility/dsp.h ****     return f;
  75:../../DaisySP/Source/Utility/dsp.h **** }
  76:../../DaisySP/Source/Utility/dsp.h **** 
  77:../../DaisySP/Source/Utility/dsp.h **** inline float fastroot(float f, int n)
  78:../../DaisySP/Source/Utility/dsp.h **** {
  79:../../DaisySP/Source/Utility/dsp.h ****     long *lp, l;
  80:../../DaisySP/Source/Utility/dsp.h ****     lp = (long *)(&f);
  81:../../DaisySP/Source/Utility/dsp.h ****     l  = *lp;
  82:../../DaisySP/Source/Utility/dsp.h ****     l -= 0x3F800000;
  83:../../DaisySP/Source/Utility/dsp.h ****     l >>= (n = 1);
  84:../../DaisySP/Source/Utility/dsp.h ****     l += 0x3F800000;
  85:../../DaisySP/Source/Utility/dsp.h ****     *lp = l;
  86:../../DaisySP/Source/Utility/dsp.h ****     return f;
  87:../../DaisySP/Source/Utility/dsp.h **** }
  88:../../DaisySP/Source/Utility/dsp.h **** 
  89:../../DaisySP/Source/Utility/dsp.h **** /** From http://openaudio.blogspot.com/2017/02/faster-log10-and-pow.html
ARM GAS  /var/folders/0z/b9p8b05s1kb5msq549c5__rh0000gn/T//cciRiJ2K.s 			page 14


  90:../../DaisySP/Source/Utility/dsp.h **** No approximation, pow10f(x) gives a 90% speed increase over powf(10.f, x)
  91:../../DaisySP/Source/Utility/dsp.h **** */
  92:../../DaisySP/Source/Utility/dsp.h **** inline float pow10f(float f)
  93:../../DaisySP/Source/Utility/dsp.h **** {
  94:../../DaisySP/Source/Utility/dsp.h ****     return expf(2.302585092994046f * f);
  95:../../DaisySP/Source/Utility/dsp.h **** }
  96:../../DaisySP/Source/Utility/dsp.h **** 
  97:../../DaisySP/Source/Utility/dsp.h **** /* Original code for fastlog2f by Dr. Paul Beckmann from the ARM community forum, adapted from the 
  98:../../DaisySP/Source/Utility/dsp.h **** About 25% performance increase over std::log10f
  99:../../DaisySP/Source/Utility/dsp.h **** */
 100:../../DaisySP/Source/Utility/dsp.h **** inline float fastlog2f(float f)
 101:../../DaisySP/Source/Utility/dsp.h **** {
 102:../../DaisySP/Source/Utility/dsp.h ****     float frac;
 103:../../DaisySP/Source/Utility/dsp.h ****     int   exp;
 104:../../DaisySP/Source/Utility/dsp.h ****     frac = frexpf(fabsf(f), &exp);
 105:../../DaisySP/Source/Utility/dsp.h ****     f    = 1.23149591368684f;
 106:../../DaisySP/Source/Utility/dsp.h ****     f *= frac;
 107:../../DaisySP/Source/Utility/dsp.h ****     f += -4.11852516267426f;
 108:../../DaisySP/Source/Utility/dsp.h ****     f *= frac;
 109:../../DaisySP/Source/Utility/dsp.h ****     f += 6.02197014179219f;
 110:../../DaisySP/Source/Utility/dsp.h ****     f *= frac;
 111:../../DaisySP/Source/Utility/dsp.h ****     f += -3.13396450166353f;
 112:../../DaisySP/Source/Utility/dsp.h ****     f += exp;
 113:../../DaisySP/Source/Utility/dsp.h ****     return (f);
 114:../../DaisySP/Source/Utility/dsp.h **** }
 115:../../DaisySP/Source/Utility/dsp.h **** 
 116:../../DaisySP/Source/Utility/dsp.h **** inline float fastlog10f(float f)
 117:../../DaisySP/Source/Utility/dsp.h **** {
 118:../../DaisySP/Source/Utility/dsp.h ****     return fastlog2f(f) * 0.3010299956639812f;
 119:../../DaisySP/Source/Utility/dsp.h **** }
 120:../../DaisySP/Source/Utility/dsp.h **** 
 121:../../DaisySP/Source/Utility/dsp.h **** /** Midi to frequency helper
 122:../../DaisySP/Source/Utility/dsp.h **** */
 123:../../DaisySP/Source/Utility/dsp.h **** inline float mtof(float m)
 208              		.loc 9 123 14 view .LVU36
 209              	.LBB171:
 124:../../DaisySP/Source/Utility/dsp.h **** {
 125:../../DaisySP/Source/Utility/dsp.h ****     return powf(2, (m - 69.0f) / 12.0f) * 440.0f;
 210              		.loc 9 125 5 view .LVU37
 211              	.LBE171:
 212              	.LBE170:
  66:DrumModule.cpp **** 
 213              		.loc 8 66 31 is_stmt 0 view .LVU38
 214 0040 DAED006A 		vldr.32	s13, [r10]
 215              	.LBB175:
 216              	.LBB172:
 217              		.loc 9 125 16 view .LVU39
 218 0044 F2EE080A 		vmov.f32	s1, #1.2e+1
 219              		.loc 9 125 23 view .LVU40
 220 0048 9FED2B7A 		vldr.32	s14, .L26+8
 221              		.loc 9 125 16 view .LVU41
 222 004c B0EE000A 		vmov.f32	s0, #2.0e+0
 223              	.LBE172:
 224              	.LBE175:
  66:DrumModule.cpp **** 
 225              		.loc 8 66 31 view .LVU42
 226 0050 77EEA67A 		vadd.f32	s15, s15, s13
ARM GAS  /var/folders/0z/b9p8b05s1kb5msq549c5__rh0000gn/T//cciRiJ2K.s 			page 15


 227              	.LVL7:
  66:DrumModule.cpp **** 
 228              		.loc 8 66 54 view .LVU43
 229 0054 FDEEE77A 		vcvt.s32.f32	s15, s15
 230              		.loc 8 68 20 view .LVU44
 231 0058 F8EEE77A 		vcvt.f32.s32	s15, s15
 232              	.LBB176:
 233              	.LBB173:
 234              		.loc 9 125 23 view .LVU45
 235 005c 77EEC77A 		vsub.f32	s15, s15, s14
 236              		.loc 9 125 16 view .LVU46
 237 0060 C7EEA00A 		vdiv.f32	s1, s15, s1
 238 0064 FFF7FEFF 		bl	powf
 239              	.LVL8:
 240              		.loc 9 125 43 view .LVU47
 241 0068 DFED247A 		vldr.32	s15, .L26+12
 242              	.LBE173:
 243              	.LBE176:
 244              	.LBB177:
 245              	.LBB178:
  17:../../DaisySP/Source/Synthesis/oscillator.h ****     /** Choices for output waveforms, POLYBLEP are appropriately labeled. Others are naive forms.
  18:../../DaisySP/Source/Synthesis/oscillator.h ****     */
  19:../../DaisySP/Source/Synthesis/oscillator.h ****     enum
  20:../../DaisySP/Source/Synthesis/oscillator.h ****     {
  21:../../DaisySP/Source/Synthesis/oscillator.h ****         WAVE_SIN,
  22:../../DaisySP/Source/Synthesis/oscillator.h ****         WAVE_TRI,
  23:../../DaisySP/Source/Synthesis/oscillator.h ****         WAVE_SAW,
  24:../../DaisySP/Source/Synthesis/oscillator.h ****         WAVE_RAMP,
  25:../../DaisySP/Source/Synthesis/oscillator.h ****         WAVE_SQUARE,
  26:../../DaisySP/Source/Synthesis/oscillator.h ****         WAVE_POLYBLEP_TRI,
  27:../../DaisySP/Source/Synthesis/oscillator.h ****         WAVE_POLYBLEP_SAW,
  28:../../DaisySP/Source/Synthesis/oscillator.h ****         WAVE_POLYBLEP_SQUARE,
  29:../../DaisySP/Source/Synthesis/oscillator.h ****         WAVE_LAST,
  30:../../DaisySP/Source/Synthesis/oscillator.h ****     };
  31:../../DaisySP/Source/Synthesis/oscillator.h **** 
  32:../../DaisySP/Source/Synthesis/oscillator.h **** 
  33:../../DaisySP/Source/Synthesis/oscillator.h ****     /** Initializes the Oscillator
  34:../../DaisySP/Source/Synthesis/oscillator.h **** 
  35:../../DaisySP/Source/Synthesis/oscillator.h ****         \param sample_rate - sample rate of the audio engine being run, and the frequency that the 
  36:../../DaisySP/Source/Synthesis/oscillator.h **** 
  37:../../DaisySP/Source/Synthesis/oscillator.h ****         Defaults:
  38:../../DaisySP/Source/Synthesis/oscillator.h ****         - freq_ = 100 Hz
  39:../../DaisySP/Source/Synthesis/oscillator.h ****         - amp_ = 0.5
  40:../../DaisySP/Source/Synthesis/oscillator.h ****         - waveform_ = sine wave.
  41:../../DaisySP/Source/Synthesis/oscillator.h ****     */
  42:../../DaisySP/Source/Synthesis/oscillator.h ****     void Init(float sample_rate)
  43:../../DaisySP/Source/Synthesis/oscillator.h ****     {
  44:../../DaisySP/Source/Synthesis/oscillator.h ****         sr_        = sample_rate;
  45:../../DaisySP/Source/Synthesis/oscillator.h ****         sr_recip_  = 1.0f / sample_rate;
  46:../../DaisySP/Source/Synthesis/oscillator.h ****         freq_      = 100.0f;
  47:../../DaisySP/Source/Synthesis/oscillator.h ****         amp_       = 0.5f;
  48:../../DaisySP/Source/Synthesis/oscillator.h ****         phase_     = 0.0f;
  49:../../DaisySP/Source/Synthesis/oscillator.h ****         phase_inc_ = CalcPhaseInc(freq_);
  50:../../DaisySP/Source/Synthesis/oscillator.h ****         waveform_  = WAVE_SIN;
  51:../../DaisySP/Source/Synthesis/oscillator.h ****         eoc_       = true;
  52:../../DaisySP/Source/Synthesis/oscillator.h ****         eor_       = true;
  53:../../DaisySP/Source/Synthesis/oscillator.h ****     }
ARM GAS  /var/folders/0z/b9p8b05s1kb5msq549c5__rh0000gn/T//cciRiJ2K.s 			page 16


  54:../../DaisySP/Source/Synthesis/oscillator.h **** 
  55:../../DaisySP/Source/Synthesis/oscillator.h **** 
  56:../../DaisySP/Source/Synthesis/oscillator.h ****     /** Changes the frequency of the Oscillator, and recalculates phase increment.
  57:../../DaisySP/Source/Synthesis/oscillator.h ****     */
  58:../../DaisySP/Source/Synthesis/oscillator.h ****     inline void SetFreq(const float f)
  59:../../DaisySP/Source/Synthesis/oscillator.h ****     {
  60:../../DaisySP/Source/Synthesis/oscillator.h ****         freq_      = f;
  61:../../DaisySP/Source/Synthesis/oscillator.h ****         phase_inc_ = CalcPhaseInc(f);
 246              		.loc 6 61 34 view .LVU48
 247 006c 2448     		ldr	r0, .L26+16
 248              	.LBE178:
 249              	.LBE177:
 250              	.LBB181:
 251              	.LBB174:
 252              		.loc 9 125 43 view .LVU49
 253 006e 20EE270A 		vmul.f32	s0, s0, s15
 254              	.LVL9:
 255              		.loc 9 125 43 view .LVU50
 256              	.LBE174:
 257              	.LBE181:
 258              	.LBB182:
 259              	.LBI177:
  58:../../DaisySP/Source/Synthesis/oscillator.h ****     {
 260              		.loc 6 58 17 is_stmt 1 view .LVU51
 261              	.LBB179:
  60:../../DaisySP/Source/Synthesis/oscillator.h ****         phase_inc_ = CalcPhaseInc(f);
 262              		.loc 6 60 9 view .LVU52
  60:../../DaisySP/Source/Synthesis/oscillator.h ****         phase_inc_ = CalcPhaseInc(f);
 263              		.loc 6 60 20 is_stmt 0 view .LVU53
 264 0072 88ED020A 		vstr.32	s0, [r8, #8]
 265              		.loc 6 61 9 is_stmt 1 view .LVU54
 266              		.loc 6 61 34 is_stmt 0 view .LVU55
 267 0076 FFF7FEFF 		bl	_ZN7daisysp10Oscillator12CalcPhaseIncEf
 268              	.LVL10:
 269              		.loc 6 61 34 view .LVU56
 270              	.LBE179:
 271              	.LBE182:
  69:DrumModule.cpp **** 
  70:DrumModule.cpp ****         float osc_out = osc.Process() * ampEnv.Process();
 272              		.loc 8 70 36 view .LVU57
 273 007a 2148     		ldr	r0, .L26+16
 274              	.LBB183:
 275              	.LBB180:
 276              		.loc 6 61 20 view .LVU58
 277 007c 88ED060A 		vstr.32	s0, [r8, #24]
 278              	.LVL11:
 279              		.loc 6 61 20 view .LVU59
 280              	.LBE180:
 281              	.LBE183:
 282              		.loc 8 70 9 is_stmt 1 view .LVU60
 283              		.loc 8 70 36 is_stmt 0 view .LVU61
 284 0080 FFF7FEFF 		bl	_ZN7daisysp10Oscillator7ProcessEv
 285              	.LVL12:
 286              	.LBB184:
 287              	.LBB185:
  25:DrumModule.cpp ****             trig = false;
 288              		.loc 8 25 9 view .LVU62
ARM GAS  /var/folders/0z/b9p8b05s1kb5msq549c5__rh0000gn/T//cciRiJ2K.s 			page 17


 289 0084 2B7A     		ldrb	r3, [r5, #8]	@ zero_extendqisi2
 290              	.LVL13:
  25:DrumModule.cpp ****             trig = false;
 291              		.loc 8 25 9 view .LVU63
 292              	.LBE185:
 293              	.LBI184:
  24:DrumModule.cpp ****         if (trig) {
 294              		.loc 8 24 11 is_stmt 1 view .LVU64
 295              	.LBB186:
  25:DrumModule.cpp ****             trig = false;
 296              		.loc 8 25 9 view .LVU65
 297 0086 2BB3     		cbz	r3, .L11
  26:DrumModule.cpp ****             value = 1.0f;
 298              		.loc 8 26 13 view .LVU66
  29:DrumModule.cpp ****             value = value - increment;
 299              		.loc 8 29 13 is_stmt 0 view .LVU67
 300 0088 F7EE007A 		vmov.f32	s15, #1.0e+0
  26:DrumModule.cpp ****             value = 1.0f;
 301              		.loc 8 26 18 view .LVU68
 302 008c 0023     		movs	r3, #0
 303 008e 2B72     		strb	r3, [r5, #8]
  27:DrumModule.cpp ****         }
 304              		.loc 8 27 13 is_stmt 1 view .LVU69
  29:DrumModule.cpp ****             value = value - increment;
 305              		.loc 8 29 9 view .LVU70
 306              	.L12:
  30:DrumModule.cpp ****             return value * value;
 307              		.loc 8 30 13 view .LVU71
  30:DrumModule.cpp ****             return value * value;
 308              		.loc 8 30 27 is_stmt 0 view .LVU72
 309 0090 95ED037A 		vldr.32	s14, [r5, #12]
 310 0094 77EEC77A 		vsub.f32	s15, s15, s14
  31:DrumModule.cpp ****         } else {
 311              		.loc 8 31 28 view .LVU73
 312 0098 27EEA77A 		vmul.f32	s14, s15, s15
  30:DrumModule.cpp ****             return value * value;
 313              		.loc 8 30 19 view .LVU74
 314 009c C5ED017A 		vstr.32	s15, [r5, #4]
  31:DrumModule.cpp ****         } else {
 315              		.loc 8 31 13 is_stmt 1 view .LVU75
 316              	.L13:
 317              	.LVL14:
  31:DrumModule.cpp ****         } else {
 318              		.loc 8 31 13 is_stmt 0 view .LVU76
 319              	.LBE186:
 320              	.LBE184:
 321              		.loc 8 70 56 view .LVU77
 322 00a0 20EE070A 		vmul.f32	s0, s0, s14
 323              	.LVL15:
  71:DrumModule.cpp **** 
  72:DrumModule.cpp ****         //Set the left and right outputs
  73:DrumModule.cpp ****         out[i]     = osc_out;
 324              		.loc 8 73 9 is_stmt 1 view .LVU78
 325              	.LBE164:
  61:DrumModule.cpp ****     {
 326              		.loc 8 61 25 is_stmt 0 view .LVU79
 327 00a4 4F45     		cmp	r7, r9
ARM GAS  /var/folders/0z/b9p8b05s1kb5msq549c5__rh0000gn/T//cciRiJ2K.s 			page 18


 328 00a6 04F10804 		add	r4, r4, #8
 329 00aa 07F10103 		add	r3, r7, #1
 330              	.LBB190:
 331              		.loc 8 73 20 view .LVU80
 332 00ae 04ED020A 		vstr.32	s0, [r4, #-8]
  74:DrumModule.cpp ****         out[i + 1] = osc_out;
 333              		.loc 8 74 9 is_stmt 1 view .LVU81
 334              		.loc 8 74 20 is_stmt 0 view .LVU82
 335 00b2 04ED010A 		vstr.32	s0, [r4, #-4]
 336              	.LBE190:
  61:DrumModule.cpp ****     {
 337              		.loc 8 61 5 is_stmt 1 view .LVU83
 338              	.LVL16:
  61:DrumModule.cpp ****     {
 339              		.loc 8 61 25 view .LVU84
 340 00b6 17D0     		beq	.L5
  61:DrumModule.cpp ****     {
 341              		.loc 8 61 25 is_stmt 0 view .LVU85
 342 00b8 1F46     		mov	r7, r3
 343              	.LVL17:
 344              	.L16:
 345              	.LBB191:
  66:DrumModule.cpp **** 
 346              		.loc 8 66 9 is_stmt 1 view .LVU86
 347              	.LBB188:
 348              	.LBI165:
  24:DrumModule.cpp ****         if (trig) {
 349              		.loc 8 24 11 view .LVU87
 350              	.LBB168:
  25:DrumModule.cpp ****             trig = false;
 351              		.loc 8 25 9 view .LVU88
 352 00ba 337A     		ldrb	r3, [r6, #8]	@ zero_extendqisi2
 353 00bc 002B     		cmp	r3, #0
 354 00be AFD1     		bne	.L25
  29:DrumModule.cpp ****             value = value - increment;
 355              		.loc 8 29 9 view .LVU89
  29:DrumModule.cpp ****             value = value - increment;
 356              		.loc 8 29 13 is_stmt 0 view .LVU90
 357 00c0 96ED017A 		vldr.32	s14, [r6, #4]
  29:DrumModule.cpp ****             value = value - increment;
 358              		.loc 8 29 9 view .LVU91
 359 00c4 B5EEC07A 		vcmpe.f32	s14, #0
 360 00c8 F1EE10FA 		vmrs	APSR_nzcv, FPSCR
 361 00cc ACDC     		bgt	.L8
 362 00ce DFED0D7A 		vldr.32	s15, .L26+20
 363 00d2 B5E7     		b	.L9
 364              	.LVL18:
 365              	.L11:
  29:DrumModule.cpp ****             value = value - increment;
 366              		.loc 8 29 9 view .LVU92
 367              	.LBE168:
 368              	.LBE188:
 369              	.LBB189:
 370              	.LBB187:
  29:DrumModule.cpp ****             value = value - increment;
 371              		.loc 8 29 9 is_stmt 1 view .LVU93
  29:DrumModule.cpp ****             value = value - increment;
ARM GAS  /var/folders/0z/b9p8b05s1kb5msq549c5__rh0000gn/T//cciRiJ2K.s 			page 19


 372              		.loc 8 29 13 is_stmt 0 view .LVU94
 373 00d4 D5ED017A 		vldr.32	s15, [r5, #4]
  29:DrumModule.cpp ****             value = value - increment;
 374              		.loc 8 29 9 view .LVU95
 375 00d8 F5EEC07A 		vcmpe.f32	s15, #0
 376 00dc F1EE10FA 		vmrs	APSR_nzcv, FPSCR
 377 00e0 D6DC     		bgt	.L12
  33:DrumModule.cpp ****         }
 378              		.loc 8 33 20 view .LVU96
 379 00e2 9FED087A 		vldr.32	s14, .L26+20
 380 00e6 DBE7     		b	.L13
 381              	.LVL19:
 382              	.L5:
  33:DrumModule.cpp ****         }
 383              		.loc 8 33 20 view .LVU97
 384              	.LBE187:
 385              	.LBE189:
 386              	.LBE191:
 387              	.LBE192:
  75:DrumModule.cpp ****     }
  76:DrumModule.cpp **** }
 388              		.loc 8 76 1 view .LVU98
 389 00e8 BDE8F087 		pop	{r4, r5, r6, r7, r8, r9, r10, pc}
 390              	.LVL20:
 391              	.L22:
 392              		.cfi_def_cfa_offset 0
 393              		.cfi_restore 4
 394              		.cfi_restore 5
 395              		.cfi_restore 6
 396              		.cfi_restore 7
 397              		.cfi_restore 8
 398              		.cfi_restore 9
 399              		.cfi_restore 10
 400              		.cfi_restore 14
 401              		.loc 8 76 1 view .LVU99
 402 00ec 7047     		bx	lr
 403              	.L27:
 404 00ee 00BF     		.align	2
 405              	.L26:
 406 00f0 00000000 		.word	.LANCHOR0
 407 00f4 00000000 		.word	.LANCHOR3
 408 00f8 00008A42 		.word	1116340224
 409 00fc 0000DC43 		.word	1138491392
 410 0100 00000000 		.word	.LANCHOR2
 411 0104 00000000 		.word	0
 412 0108 00000000 		.word	.LANCHOR1
 413              		.cfi_endproc
 414              	.LFE4248:
 416              		.section	.text._Z17HandleMidiMessageN5daisy9MidiEventE,"ax",%progbits
 417              		.align	1
 418              		.p2align 2,,3
 419              		.global	_Z17HandleMidiMessageN5daisy9MidiEventE
 420              		.syntax unified
 421              		.thumb
 422              		.thumb_func
 423              		.fpu fpv5-d16
 425              	_Z17HandleMidiMessageN5daisy9MidiEventE:
ARM GAS  /var/folders/0z/b9p8b05s1kb5msq549c5__rh0000gn/T//cciRiJ2K.s 			page 20


 426              	.LFB4249:
  77:DrumModule.cpp **** 
  78:DrumModule.cpp **** 
  79:DrumModule.cpp **** // Typical Switch case for Message Type.
  80:DrumModule.cpp **** void HandleMidiMessage(MidiEvent m)
  81:DrumModule.cpp **** {
 427              		.loc 8 81 1 is_stmt 1 view -0
 428              		.cfi_startproc
 429              		@ args = 144, pretend = 16, frame = 0
 430              		@ frame_needed = 0, uses_anonymous_args = 0
 431              		@ link register save eliminated.
 432 0000 84B0     		sub	sp, sp, #16
 433              		.cfi_def_cfa_offset 16
 434              		.loc 8 81 1 is_stmt 0 view .LVU101
 435 0002 8DE80F00 		stm	sp, {r0, r1, r2, r3}
 436 0006 9DF80030 		ldrb	r3, [sp]	@ zero_extendqisi2
 437              	.LVL21:
  82:DrumModule.cpp ****     if (m.type == NoteOn) {
 438              		.loc 8 82 5 is_stmt 1 view .LVU102
 439              	.LBB201:
 440 000a 012B     		cmp	r3, #1
 441 000c 04D0     		beq	.L34
  83:DrumModule.cpp ****         NoteOnEvent noteOn = m.AsNoteOn();
  84:DrumModule.cpp ****         basePitch = noteOn.note;
  85:DrumModule.cpp ****         gate = noteOn.velocity > 0;
  86:DrumModule.cpp ****         if (gate) {
  87:DrumModule.cpp ****             ampEnv.Trig();
  88:DrumModule.cpp ****             pitchEnv.Trig();
  89:DrumModule.cpp ****         }
  90:DrumModule.cpp ****     }
  91:DrumModule.cpp ****     else if (m.type == NoteOff) {
 442              		.loc 8 91 10 view .LVU103
 443 000e 0BB9     		cbnz	r3, .L28
  92:DrumModule.cpp ****          gate = false;
 444              		.loc 8 92 10 view .LVU104
 445              		.loc 8 92 15 is_stmt 0 view .LVU105
 446 0010 0D4A     		ldr	r2, .L35
 447 0012 1370     		strb	r3, [r2]
 448              	.L28:
 449              		.loc 8 92 15 view .LVU106
 450              	.LBE201:
  93:DrumModule.cpp ****     } 
  94:DrumModule.cpp **** }
 451              		.loc 8 94 1 view .LVU107
 452 0014 04B0     		add	sp, sp, #16
 453              		.cfi_remember_state
 454              		.cfi_def_cfa_offset 0
 455 0016 7047     		bx	lr
 456              	.L34:
 457              		.cfi_restore_state
 458              	.LBB216:
 459              	.LBB202:
  83:DrumModule.cpp ****         basePitch = noteOn.note;
 460              		.loc 8 83 9 is_stmt 1 view .LVU108
 461              	.LVL22:
 462              	.LBB203:
 463              	.LBI203:
ARM GAS  /var/folders/0z/b9p8b05s1kb5msq549c5__rh0000gn/T//cciRiJ2K.s 			page 21


 464              		.file 10 "../../libdaisy/src/hid/MidiEvent.h"
   1:../../libdaisy/src/hid/MidiEvent.h **** namespace daisy
   2:../../libdaisy/src/hid/MidiEvent.h **** {
   3:../../libdaisy/src/hid/MidiEvent.h **** /** Parsed from the Status Byte, these are the common Midi Messages that can be handled. \n
   4:../../libdaisy/src/hid/MidiEvent.h **** At this time only 3-byte messages are correctly parsed into MidiEvents.
   5:../../libdaisy/src/hid/MidiEvent.h **** */
   6:../../libdaisy/src/hid/MidiEvent.h **** enum MidiMessageType
   7:../../libdaisy/src/hid/MidiEvent.h **** {
   8:../../libdaisy/src/hid/MidiEvent.h ****     NoteOff,               /**< & */
   9:../../libdaisy/src/hid/MidiEvent.h ****     NoteOn,                /**< & */
  10:../../libdaisy/src/hid/MidiEvent.h ****     PolyphonicKeyPressure, /**< & */
  11:../../libdaisy/src/hid/MidiEvent.h ****     ControlChange,         /**< & */
  12:../../libdaisy/src/hid/MidiEvent.h ****     ProgramChange,         /**< & */
  13:../../libdaisy/src/hid/MidiEvent.h ****     ChannelPressure,       /**< & */
  14:../../libdaisy/src/hid/MidiEvent.h ****     PitchBend,             /**< & */
  15:../../libdaisy/src/hid/MidiEvent.h ****     SystemCommon,          /**< & */
  16:../../libdaisy/src/hid/MidiEvent.h ****     SystemRealTime,        /**< & */
  17:../../libdaisy/src/hid/MidiEvent.h ****     ChannelMode,           /**< & */
  18:../../libdaisy/src/hid/MidiEvent.h ****     MessageLast,           /**< & */
  19:../../libdaisy/src/hid/MidiEvent.h **** };
  20:../../libdaisy/src/hid/MidiEvent.h **** 
  21:../../libdaisy/src/hid/MidiEvent.h **** enum SystemCommonType
  22:../../libdaisy/src/hid/MidiEvent.h **** {
  23:../../libdaisy/src/hid/MidiEvent.h ****     SystemExclusive,     /**< & */
  24:../../libdaisy/src/hid/MidiEvent.h ****     MTCQuarterFrame,     /**< & */
  25:../../libdaisy/src/hid/MidiEvent.h ****     SongPositionPointer, /**< & */
  26:../../libdaisy/src/hid/MidiEvent.h ****     SongSelect,          /**< & */
  27:../../libdaisy/src/hid/MidiEvent.h ****     SCUndefined0,        /**< & */
  28:../../libdaisy/src/hid/MidiEvent.h ****     SCUndefined1,        /**< & */
  29:../../libdaisy/src/hid/MidiEvent.h ****     TuneRequest,         /**< & */
  30:../../libdaisy/src/hid/MidiEvent.h ****     SysExEnd,            /**< & */
  31:../../libdaisy/src/hid/MidiEvent.h ****     SystemCommonLast,    /**< & */
  32:../../libdaisy/src/hid/MidiEvent.h **** };
  33:../../libdaisy/src/hid/MidiEvent.h **** 
  34:../../libdaisy/src/hid/MidiEvent.h **** enum SystemRealTimeType
  35:../../libdaisy/src/hid/MidiEvent.h **** {
  36:../../libdaisy/src/hid/MidiEvent.h ****     TimingClock,        /**< & */
  37:../../libdaisy/src/hid/MidiEvent.h ****     SRTUndefined0,      /**< & */
  38:../../libdaisy/src/hid/MidiEvent.h ****     Start,              /**< & */
  39:../../libdaisy/src/hid/MidiEvent.h ****     Continue,           /**< & */
  40:../../libdaisy/src/hid/MidiEvent.h ****     Stop,               /**< & */
  41:../../libdaisy/src/hid/MidiEvent.h ****     SRTUndefined1,      /**< & */
  42:../../libdaisy/src/hid/MidiEvent.h ****     ActiveSensing,      /**< & */
  43:../../libdaisy/src/hid/MidiEvent.h ****     Reset,              /**< & */
  44:../../libdaisy/src/hid/MidiEvent.h ****     SystemRealTimeLast, /**< & */
  45:../../libdaisy/src/hid/MidiEvent.h **** };
  46:../../libdaisy/src/hid/MidiEvent.h **** 
  47:../../libdaisy/src/hid/MidiEvent.h **** enum ChannelModeType
  48:../../libdaisy/src/hid/MidiEvent.h **** {
  49:../../libdaisy/src/hid/MidiEvent.h ****     AllSoundOff,         /**< & */
  50:../../libdaisy/src/hid/MidiEvent.h ****     ResetAllControllers, /**< & */
  51:../../libdaisy/src/hid/MidiEvent.h ****     LocalControl,        /**< & */
  52:../../libdaisy/src/hid/MidiEvent.h ****     AllNotesOff,         /**< & */
  53:../../libdaisy/src/hid/MidiEvent.h ****     OmniModeOff,         /**< & */
  54:../../libdaisy/src/hid/MidiEvent.h ****     OmniModeOn,          /**< & */
  55:../../libdaisy/src/hid/MidiEvent.h ****     MonoModeOn,          /**< & */
  56:../../libdaisy/src/hid/MidiEvent.h ****     PolyModeOn,          /**< & */
ARM GAS  /var/folders/0z/b9p8b05s1kb5msq549c5__rh0000gn/T//cciRiJ2K.s 			page 22


  57:../../libdaisy/src/hid/MidiEvent.h ****     ChannelModeLast,     /**< & */
  58:../../libdaisy/src/hid/MidiEvent.h **** };
  59:../../libdaisy/src/hid/MidiEvent.h **** 
  60:../../libdaisy/src/hid/MidiEvent.h **** /** Struct containing note, and velocity data for a given channel.
  61:../../libdaisy/src/hid/MidiEvent.h **** Can be made from MidiEvent
  62:../../libdaisy/src/hid/MidiEvent.h **** */
  63:../../libdaisy/src/hid/MidiEvent.h **** struct NoteOffEvent
  64:../../libdaisy/src/hid/MidiEvent.h **** {
  65:../../libdaisy/src/hid/MidiEvent.h ****     int     channel;  /**< & */
  66:../../libdaisy/src/hid/MidiEvent.h ****     uint8_t note;     /**< & */
  67:../../libdaisy/src/hid/MidiEvent.h ****     uint8_t velocity; /**< & */
  68:../../libdaisy/src/hid/MidiEvent.h **** };
  69:../../libdaisy/src/hid/MidiEvent.h **** 
  70:../../libdaisy/src/hid/MidiEvent.h **** 
  71:../../libdaisy/src/hid/MidiEvent.h **** /** Struct containing note, and velocity data for a given channel.
  72:../../libdaisy/src/hid/MidiEvent.h **** Can be made from MidiEvent
  73:../../libdaisy/src/hid/MidiEvent.h **** */
  74:../../libdaisy/src/hid/MidiEvent.h **** struct NoteOnEvent
  75:../../libdaisy/src/hid/MidiEvent.h **** {
  76:../../libdaisy/src/hid/MidiEvent.h ****     int     channel;  /**< & */
  77:../../libdaisy/src/hid/MidiEvent.h ****     uint8_t note;     /**< & */
  78:../../libdaisy/src/hid/MidiEvent.h ****     uint8_t velocity; /**< & */
  79:../../libdaisy/src/hid/MidiEvent.h **** };
  80:../../libdaisy/src/hid/MidiEvent.h **** /** Struct containing note, and pressure data for a given channel.
  81:../../libdaisy/src/hid/MidiEvent.h **** Can be made from MidiEvent
  82:../../libdaisy/src/hid/MidiEvent.h **** */
  83:../../libdaisy/src/hid/MidiEvent.h **** struct PolyphonicKeyPressureEvent
  84:../../libdaisy/src/hid/MidiEvent.h **** {
  85:../../libdaisy/src/hid/MidiEvent.h ****     int     channel;
  86:../../libdaisy/src/hid/MidiEvent.h ****     uint8_t note;
  87:../../libdaisy/src/hid/MidiEvent.h ****     uint8_t pressure;
  88:../../libdaisy/src/hid/MidiEvent.h **** };
  89:../../libdaisy/src/hid/MidiEvent.h **** /** Struct containing control number, and value for a given channel.
  90:../../libdaisy/src/hid/MidiEvent.h **** Can be made from MidiEvent
  91:../../libdaisy/src/hid/MidiEvent.h **** */
  92:../../libdaisy/src/hid/MidiEvent.h **** struct ControlChangeEvent
  93:../../libdaisy/src/hid/MidiEvent.h **** {
  94:../../libdaisy/src/hid/MidiEvent.h ****     int     channel;        /**< & */
  95:../../libdaisy/src/hid/MidiEvent.h ****     uint8_t control_number; /**< & */
  96:../../libdaisy/src/hid/MidiEvent.h ****     uint8_t value;          /**< & */
  97:../../libdaisy/src/hid/MidiEvent.h **** };
  98:../../libdaisy/src/hid/MidiEvent.h **** /** Struct containing new program number, for a given channel.
  99:../../libdaisy/src/hid/MidiEvent.h **** Can be made from MidiEvent
 100:../../libdaisy/src/hid/MidiEvent.h **** */
 101:../../libdaisy/src/hid/MidiEvent.h **** struct ProgramChangeEvent
 102:../../libdaisy/src/hid/MidiEvent.h **** {
 103:../../libdaisy/src/hid/MidiEvent.h ****     int     channel; /**< & */
 104:../../libdaisy/src/hid/MidiEvent.h ****     uint8_t program; /**< & */
 105:../../libdaisy/src/hid/MidiEvent.h **** };
 106:../../libdaisy/src/hid/MidiEvent.h **** /** Struct containing pressure (aftertouch), for a given channel.
 107:../../libdaisy/src/hid/MidiEvent.h **** Can be made from MidiEvent
 108:../../libdaisy/src/hid/MidiEvent.h **** */
 109:../../libdaisy/src/hid/MidiEvent.h **** struct ChannelPressureEvent
 110:../../libdaisy/src/hid/MidiEvent.h **** {
 111:../../libdaisy/src/hid/MidiEvent.h ****     int     channel;  /**< & */
 112:../../libdaisy/src/hid/MidiEvent.h ****     uint8_t pressure; /**< & */
 113:../../libdaisy/src/hid/MidiEvent.h **** };
ARM GAS  /var/folders/0z/b9p8b05s1kb5msq549c5__rh0000gn/T//cciRiJ2K.s 			page 23


 114:../../libdaisy/src/hid/MidiEvent.h **** /** Struct containing pitch bend value for a given channel.
 115:../../libdaisy/src/hid/MidiEvent.h **** Can be made from MidiEvent
 116:../../libdaisy/src/hid/MidiEvent.h **** */
 117:../../libdaisy/src/hid/MidiEvent.h **** struct PitchBendEvent
 118:../../libdaisy/src/hid/MidiEvent.h **** {
 119:../../libdaisy/src/hid/MidiEvent.h ****     int     channel; /**< & */
 120:../../libdaisy/src/hid/MidiEvent.h ****     int16_t value;   /**< & */
 121:../../libdaisy/src/hid/MidiEvent.h **** };
 122:../../libdaisy/src/hid/MidiEvent.h **** /** Struct containing sysex data.
 123:../../libdaisy/src/hid/MidiEvent.h **** Can be made from MidiEvent
 124:../../libdaisy/src/hid/MidiEvent.h **** */
 125:../../libdaisy/src/hid/MidiEvent.h **** struct SystemExclusiveEvent
 126:../../libdaisy/src/hid/MidiEvent.h **** {
 127:../../libdaisy/src/hid/MidiEvent.h ****     int     length;
 128:../../libdaisy/src/hid/MidiEvent.h ****     uint8_t data[SYSEX_BUFFER_LEN]; /**< & */
 129:../../libdaisy/src/hid/MidiEvent.h **** };
 130:../../libdaisy/src/hid/MidiEvent.h **** /** Struct containing QuarterFrame data.
 131:../../libdaisy/src/hid/MidiEvent.h **** Can be made from MidiEvent
 132:../../libdaisy/src/hid/MidiEvent.h **** */
 133:../../libdaisy/src/hid/MidiEvent.h **** struct MTCQuarterFrameEvent
 134:../../libdaisy/src/hid/MidiEvent.h **** {
 135:../../libdaisy/src/hid/MidiEvent.h ****     uint8_t message_type; /**< & */
 136:../../libdaisy/src/hid/MidiEvent.h ****     uint8_t value;        /**< & */
 137:../../libdaisy/src/hid/MidiEvent.h **** };
 138:../../libdaisy/src/hid/MidiEvent.h **** /** Struct containing song position data.
 139:../../libdaisy/src/hid/MidiEvent.h **** Can be made from MidiEvent
 140:../../libdaisy/src/hid/MidiEvent.h **** */
 141:../../libdaisy/src/hid/MidiEvent.h **** struct SongPositionPointerEvent
 142:../../libdaisy/src/hid/MidiEvent.h **** {
 143:../../libdaisy/src/hid/MidiEvent.h ****     uint16_t position; /**< & */
 144:../../libdaisy/src/hid/MidiEvent.h **** };
 145:../../libdaisy/src/hid/MidiEvent.h **** /** Struct containing song select data.
 146:../../libdaisy/src/hid/MidiEvent.h **** Can be made from MidiEvent
 147:../../libdaisy/src/hid/MidiEvent.h **** */
 148:../../libdaisy/src/hid/MidiEvent.h **** struct SongSelectEvent
 149:../../libdaisy/src/hid/MidiEvent.h **** {
 150:../../libdaisy/src/hid/MidiEvent.h ****     uint8_t song; /**< & */
 151:../../libdaisy/src/hid/MidiEvent.h **** };
 152:../../libdaisy/src/hid/MidiEvent.h **** /** Struct containing sound off data.
 153:../../libdaisy/src/hid/MidiEvent.h **** Can be made from MidiEvent
 154:../../libdaisy/src/hid/MidiEvent.h **** */
 155:../../libdaisy/src/hid/MidiEvent.h **** struct AllSoundOffEvent
 156:../../libdaisy/src/hid/MidiEvent.h **** {
 157:../../libdaisy/src/hid/MidiEvent.h ****     int channel; /**< & */
 158:../../libdaisy/src/hid/MidiEvent.h **** };
 159:../../libdaisy/src/hid/MidiEvent.h **** /** Struct containing ResetAllControllersEvent data.
 160:../../libdaisy/src/hid/MidiEvent.h **** Can be made from MidiEvent
 161:../../libdaisy/src/hid/MidiEvent.h **** */
 162:../../libdaisy/src/hid/MidiEvent.h **** struct ResetAllControllersEvent
 163:../../libdaisy/src/hid/MidiEvent.h **** {
 164:../../libdaisy/src/hid/MidiEvent.h ****     int     channel; /**< & */
 165:../../libdaisy/src/hid/MidiEvent.h ****     uint8_t value;   /**< & */
 166:../../libdaisy/src/hid/MidiEvent.h **** };
 167:../../libdaisy/src/hid/MidiEvent.h **** /** Struct containing LocalControlEvent data.
 168:../../libdaisy/src/hid/MidiEvent.h **** Can be made from MidiEvent
 169:../../libdaisy/src/hid/MidiEvent.h **** */
 170:../../libdaisy/src/hid/MidiEvent.h **** struct LocalControlEvent
ARM GAS  /var/folders/0z/b9p8b05s1kb5msq549c5__rh0000gn/T//cciRiJ2K.s 			page 24


 171:../../libdaisy/src/hid/MidiEvent.h **** {
 172:../../libdaisy/src/hid/MidiEvent.h ****     int  channel;           /**< & */
 173:../../libdaisy/src/hid/MidiEvent.h ****     bool local_control_off; /**< & */
 174:../../libdaisy/src/hid/MidiEvent.h ****     bool local_control_on;  /**< & */
 175:../../libdaisy/src/hid/MidiEvent.h **** };
 176:../../libdaisy/src/hid/MidiEvent.h **** /** Struct containing AllNotesOffEvent data.
 177:../../libdaisy/src/hid/MidiEvent.h **** Can be made from MidiEvent
 178:../../libdaisy/src/hid/MidiEvent.h **** */
 179:../../libdaisy/src/hid/MidiEvent.h **** struct AllNotesOffEvent
 180:../../libdaisy/src/hid/MidiEvent.h **** {
 181:../../libdaisy/src/hid/MidiEvent.h ****     int channel; /**< & */
 182:../../libdaisy/src/hid/MidiEvent.h **** };
 183:../../libdaisy/src/hid/MidiEvent.h **** /** Struct containing OmniModeOffEvent data. 
 184:../../libdaisy/src/hid/MidiEvent.h ****  * Can be made from MidiEvent
 185:../../libdaisy/src/hid/MidiEvent.h **** */
 186:../../libdaisy/src/hid/MidiEvent.h **** struct OmniModeOffEvent
 187:../../libdaisy/src/hid/MidiEvent.h **** {
 188:../../libdaisy/src/hid/MidiEvent.h ****     int channel; /**< & */
 189:../../libdaisy/src/hid/MidiEvent.h **** };
 190:../../libdaisy/src/hid/MidiEvent.h **** /** Struct containing OmniModeOnEvent data.
 191:../../libdaisy/src/hid/MidiEvent.h **** Can be made from MidiEvent
 192:../../libdaisy/src/hid/MidiEvent.h **** */
 193:../../libdaisy/src/hid/MidiEvent.h **** struct OmniModeOnEvent
 194:../../libdaisy/src/hid/MidiEvent.h **** {
 195:../../libdaisy/src/hid/MidiEvent.h ****     int channel; /**< & */
 196:../../libdaisy/src/hid/MidiEvent.h **** };
 197:../../libdaisy/src/hid/MidiEvent.h **** /** Struct containing MonoModeOnEvent data.
 198:../../libdaisy/src/hid/MidiEvent.h **** Can be made from MidiEvent
 199:../../libdaisy/src/hid/MidiEvent.h **** */
 200:../../libdaisy/src/hid/MidiEvent.h **** struct MonoModeOnEvent
 201:../../libdaisy/src/hid/MidiEvent.h **** {
 202:../../libdaisy/src/hid/MidiEvent.h ****     int     channel;      /**< & */
 203:../../libdaisy/src/hid/MidiEvent.h ****     uint8_t num_channels; /**< & */
 204:../../libdaisy/src/hid/MidiEvent.h **** };
 205:../../libdaisy/src/hid/MidiEvent.h **** /** Struct containing PolyModeOnEvent data.
 206:../../libdaisy/src/hid/MidiEvent.h **** Can be made from MidiEvent
 207:../../libdaisy/src/hid/MidiEvent.h **** */
 208:../../libdaisy/src/hid/MidiEvent.h **** struct PolyModeOnEvent
 209:../../libdaisy/src/hid/MidiEvent.h **** {
 210:../../libdaisy/src/hid/MidiEvent.h ****     int channel; /**< & */
 211:../../libdaisy/src/hid/MidiEvent.h **** };
 212:../../libdaisy/src/hid/MidiEvent.h **** 
 213:../../libdaisy/src/hid/MidiEvent.h **** 
 214:../../libdaisy/src/hid/MidiEvent.h **** /** Simple MidiEvent with message type, channel, and data[2] members.
 215:../../libdaisy/src/hid/MidiEvent.h **** */
 216:../../libdaisy/src/hid/MidiEvent.h **** struct MidiEvent
 217:../../libdaisy/src/hid/MidiEvent.h **** {
 218:../../libdaisy/src/hid/MidiEvent.h ****     // Newer ish.
 219:../../libdaisy/src/hid/MidiEvent.h ****     MidiMessageType    type;                         /**< & */
 220:../../libdaisy/src/hid/MidiEvent.h ****     int                channel;                      /**< & */
 221:../../libdaisy/src/hid/MidiEvent.h ****     uint8_t            data[2];                      /**< & */
 222:../../libdaisy/src/hid/MidiEvent.h ****     uint8_t            sysex_data[SYSEX_BUFFER_LEN]; /**< & */
 223:../../libdaisy/src/hid/MidiEvent.h ****     uint8_t            sysex_message_len;
 224:../../libdaisy/src/hid/MidiEvent.h ****     SystemCommonType   sc_type;
 225:../../libdaisy/src/hid/MidiEvent.h ****     SystemRealTimeType srt_type;
 226:../../libdaisy/src/hid/MidiEvent.h ****     ChannelModeType    cm_type;
 227:../../libdaisy/src/hid/MidiEvent.h **** 
ARM GAS  /var/folders/0z/b9p8b05s1kb5msq549c5__rh0000gn/T//cciRiJ2K.s 			page 25


 228:../../libdaisy/src/hid/MidiEvent.h ****     /** Returns the data within the MidiEvent as a NoteOffEvent struct */
 229:../../libdaisy/src/hid/MidiEvent.h ****     NoteOffEvent AsNoteOff()
 230:../../libdaisy/src/hid/MidiEvent.h ****     {
 231:../../libdaisy/src/hid/MidiEvent.h ****         NoteOffEvent m;
 232:../../libdaisy/src/hid/MidiEvent.h ****         m.channel  = channel;
 233:../../libdaisy/src/hid/MidiEvent.h ****         m.note     = data[0];
 234:../../libdaisy/src/hid/MidiEvent.h ****         m.velocity = data[1];
 235:../../libdaisy/src/hid/MidiEvent.h ****         return m;
 236:../../libdaisy/src/hid/MidiEvent.h ****     }
 237:../../libdaisy/src/hid/MidiEvent.h **** 
 238:../../libdaisy/src/hid/MidiEvent.h ****     /** Returns the data within the MidiEvent as a NoteOnEvent struct */
 239:../../libdaisy/src/hid/MidiEvent.h ****     NoteOnEvent AsNoteOn()
 465              		.loc 10 239 17 view .LVU109
 466              	.LBB204:
 240:../../libdaisy/src/hid/MidiEvent.h ****     {
 241:../../libdaisy/src/hid/MidiEvent.h ****         NoteOnEvent m;
 467              		.loc 10 241 9 view .LVU110
 242:../../libdaisy/src/hid/MidiEvent.h ****         m.channel  = channel;
 468              		.loc 10 242 9 view .LVU111
 243:../../libdaisy/src/hid/MidiEvent.h ****         m.note     = data[0];
 469              		.loc 10 243 9 view .LVU112
 244:../../libdaisy/src/hid/MidiEvent.h ****         m.velocity = data[1];
 470              		.loc 10 244 9 view .LVU113
 471              	.LBE204:
 472              	.LBE203:
  84:DrumModule.cpp ****         gate = noteOn.velocity > 0;
 473              		.loc 8 84 19 is_stmt 0 view .LVU114
 474 0018 9DF80820 		ldrb	r2, [sp, #8]	@ zero_extendqisi2
 475              	.LBB206:
 476              	.LBB205:
 477              		.loc 10 244 28 view .LVU115
 478 001c 9DF80910 		ldrb	r1, [sp, #9]	@ zero_extendqisi2
 479              	.LVL23:
 245:../../libdaisy/src/hid/MidiEvent.h ****         return m;
 480              		.loc 10 245 9 is_stmt 1 view .LVU116
 481              		.loc 10 245 9 is_stmt 0 view .LVU117
 482              	.LBE205:
 483              	.LBE206:
  84:DrumModule.cpp ****         gate = noteOn.velocity > 0;
 484              		.loc 8 84 9 is_stmt 1 view .LVU118
  84:DrumModule.cpp ****         gate = noteOn.velocity > 0;
 485              		.loc 8 84 19 is_stmt 0 view .LVU119
 486 0020 07EE902A 		vmov	s15, r2	@ int
 487 0024 0948     		ldr	r0, .L35+4
  85:DrumModule.cpp ****         if (gate) {
 488              		.loc 8 85 32 view .LVU120
 489 0026 0029     		cmp	r1, #0
  85:DrumModule.cpp ****         if (gate) {
 490              		.loc 8 85 14 view .LVU121
 491 0028 074A     		ldr	r2, .L35
  84:DrumModule.cpp ****         gate = noteOn.velocity > 0;
 492              		.loc 8 84 19 view .LVU122
 493 002a F8EE677A 		vcvt.f32.u32	s15, s15
  85:DrumModule.cpp ****         if (gate) {
 494              		.loc 8 85 32 view .LVU123
 495 002e 14BF     		ite	ne
 496 0030 0121     		movne	r1, #1
ARM GAS  /var/folders/0z/b9p8b05s1kb5msq549c5__rh0000gn/T//cciRiJ2K.s 			page 26


 497              	.LVL24:
  85:DrumModule.cpp ****         if (gate) {
 498              		.loc 8 85 32 view .LVU124
 499 0032 0021     		moveq	r1, #0
  84:DrumModule.cpp ****         gate = noteOn.velocity > 0;
 500              		.loc 8 84 19 view .LVU125
 501 0034 C0ED007A 		vstr.32	s15, [r0]
  85:DrumModule.cpp ****         if (gate) {
 502              		.loc 8 85 9 is_stmt 1 view .LVU126
  85:DrumModule.cpp ****         if (gate) {
 503              		.loc 8 85 32 is_stmt 0 view .LVU127
 504 0038 1170     		strb	r1, [r2]
  86:DrumModule.cpp ****             ampEnv.Trig();
 505              		.loc 8 86 9 is_stmt 1 view .LVU128
 506 003a EBD0     		beq	.L28
  87:DrumModule.cpp ****             pitchEnv.Trig();
 507              		.loc 8 87 13 view .LVU129
 508              	.LVL25:
 509              	.LBB207:
 510              	.LBI207:
  37:DrumModule.cpp ****         trig = true;    
 511              		.loc 8 37 10 view .LVU130
 512              	.LBB208:
  38:DrumModule.cpp ****     }
 513              		.loc 8 38 9 view .LVU131
  38:DrumModule.cpp ****     }
 514              		.loc 8 38 14 is_stmt 0 view .LVU132
 515 003c 0449     		ldr	r1, .L35+8
 516              	.LBE208:
 517              	.LBE207:
 518              	.LBE202:
 519              	.LBE216:
 520              		.loc 8 94 1 view .LVU133
 521 003e 04B0     		add	sp, sp, #16
 522              		.cfi_def_cfa_offset 0
 523              	.LBB217:
 524              	.LBB215:
 525              	.LBB210:
 526              	.LBB211:
  38:DrumModule.cpp ****     }
 527              		.loc 8 38 14 view .LVU134
 528 0040 044A     		ldr	r2, .L35+12
 529              	.LBE211:
 530              	.LBE210:
 531              	.LBB213:
 532              	.LBB209:
 533 0042 0B72     		strb	r3, [r1, #8]
 534              	.LVL26:
  38:DrumModule.cpp ****     }
 535              		.loc 8 38 14 view .LVU135
 536              	.LBE209:
 537              	.LBE213:
  88:DrumModule.cpp ****         }
 538              		.loc 8 88 13 is_stmt 1 view .LVU136
 539              	.LBB214:
 540              	.LBI210:
  37:DrumModule.cpp ****         trig = true;    
ARM GAS  /var/folders/0z/b9p8b05s1kb5msq549c5__rh0000gn/T//cciRiJ2K.s 			page 27


 541              		.loc 8 37 10 view .LVU137
 542              	.LBB212:
  38:DrumModule.cpp ****     }
 543              		.loc 8 38 9 view .LVU138
  38:DrumModule.cpp ****     }
 544              		.loc 8 38 14 is_stmt 0 view .LVU139
 545 0044 1372     		strb	r3, [r2, #8]
 546              	.LBE212:
 547              	.LBE214:
 548              	.LBE215:
 549              	.LBE217:
 550              		.loc 8 94 1 view .LVU140
 551 0046 7047     		bx	lr
 552              	.L36:
 553              		.align	2
 554              	.L35:
 555 0048 00000000 		.word	.LANCHOR4
 556 004c 00000000 		.word	.LANCHOR1
 557 0050 00000000 		.word	.LANCHOR3
 558 0054 00000000 		.word	.LANCHOR0
 559              		.cfi_endproc
 560              	.LFE4249:
 562              		.section	.text._Z8InitMidiv,"ax",%progbits
 563              		.align	1
 564              		.p2align 2,,3
 565              		.global	_Z8InitMidiv
 566              		.syntax unified
 567              		.thumb
 568              		.thumb_func
 569              		.fpu fpv5-d16
 571              	_Z8InitMidiv:
 572              	.LFB4250:
  95:DrumModule.cpp **** 
  96:DrumModule.cpp **** void InitMidi()
  97:DrumModule.cpp **** {
 573              		.loc 8 97 1 is_stmt 1 view -0
 574              		.cfi_startproc
 575              		@ args = 0, pretend = 0, frame = 32
 576              		@ frame_needed = 0, uses_anonymous_args = 0
  98:DrumModule.cpp ****     MidiUartHandler::Config midi_config;
 577              		.loc 8 98 5 view .LVU142
 578              	.LVL27:
 579              	.LBB228:
 580              	.LBI228:
  84:../../libdaisy/src/hid/midi.h **** 
  85:../../libdaisy/src/hid/midi.h ****     struct Config
 581              		.loc 7 85 12 view .LVU143
 582              	.LBB229:
 583              	.LBI229:
  33:../../libdaisy/src/hid/midi.h ****         {
 584              		.loc 7 33 9 view .LVU144
 585              	.LBE229:
 586              	.LBE228:
  35:../../libdaisy/src/hid/midi.h ****             rx     = {DSY_GPIOB, 7};
 587              		.loc 7 35 13 view .LVU145
  36:../../libdaisy/src/hid/midi.h ****             tx     = {DSY_GPIOB, 6};
 588              		.loc 7 36 13 view .LVU146
ARM GAS  /var/folders/0z/b9p8b05s1kb5msq549c5__rh0000gn/T//cciRiJ2K.s 			page 28


  37:../../libdaisy/src/hid/midi.h ****         }
 589              		.loc 7 37 13 view .LVU147
  99:DrumModule.cpp ****     midi.Init(midi_config);
 590              		.loc 8 99 5 view .LVU148
 591              	.LBB230:
 592              	.LBI230:
  86:../../libdaisy/src/hid/midi.h ****     {
  87:../../libdaisy/src/hid/midi.h ****         typename Transport::Config transport_config;
  88:../../libdaisy/src/hid/midi.h ****     };
  89:../../libdaisy/src/hid/midi.h **** 
  90:../../libdaisy/src/hid/midi.h ****     /** Initializes the MidiHandler 
  91:../../libdaisy/src/hid/midi.h ****     \param in_mode Input mode
  92:../../libdaisy/src/hid/midi.h ****     \param out_mode Output mode
  93:../../libdaisy/src/hid/midi.h ****      */
  94:../../libdaisy/src/hid/midi.h ****     void Init(Config config)
 593              		.loc 7 94 10 view .LVU149
 594              	.LBE230:
  97:DrumModule.cpp ****     MidiUartHandler::Config midi_config;
 595              		.loc 8 97 1 is_stmt 0 view .LVU150
 596 0000 70B5     		push	{r4, r5, r6, lr}
 597              		.cfi_def_cfa_offset 16
 598              		.cfi_offset 4, -16
 599              		.cfi_offset 5, -12
 600              		.cfi_offset 6, -8
 601              		.cfi_offset 14, -4
 602              	.LBB244:
 603              	.LBB231:
  95:../../libdaisy/src/hid/midi.h ****     {
  96:../../libdaisy/src/hid/midi.h ****         config_ = config;
 604              		.loc 7 96 9 view .LVU151
 605 0002 124E     		ldr	r6, .L39
 606              	.LBE231:
 607              	.LBE244:
  97:DrumModule.cpp ****     MidiUartHandler::Config midi_config;
 608              		.loc 8 97 1 view .LVU152
 609 0004 88B0     		sub	sp, sp, #32
 610              		.cfi_def_cfa_offset 48
 611              	.LBB245:
 612              	.LBB243:
 613              		.loc 7 96 9 view .LVU153
 614 0006 0024     		movs	r4, #0
 615              	.LBB232:
 616              	.LBB233:
  47:../../libdaisy/src/hid/midi.h ****         uart_config.parity     = UartHandler::Config::Parity::NONE;
 617              		.loc 7 47 32 view .LVU154
 618 0008 0123     		movs	r3, #1
 619              	.LBE233:
 620              	.LBE232:
 621              		.loc 7 96 9 view .LVU155
 622 000a 06F51045 		add	r5, r6, #36864
 623 000e 104A     		ldr	r2, .L39+4
 624              	.LBB236:
 625              	.LBB234:
  50:../../libdaisy/src/hid/midi.h **** 
 626              		.loc 7 50 32 view .LVU156
 627 0010 0693     		str	r3, [sp, #24]
  57:../../libdaisy/src/hid/midi.h ****     }
ARM GAS  /var/folders/0z/b9p8b05s1kb5msq549c5__rh0000gn/T//cciRiJ2K.s 			page 29


 628              		.loc 7 57 19 view .LVU157
 629 0012 01A9     		add	r1, sp, #4
 630 0014 05F1B000 		add	r0, r5, #176
  48:../../libdaisy/src/hid/midi.h ****         uart_config.mode       = UartHandler::Config::Mode::TX_RX;
 631              		.loc 7 48 32 view .LVU158
 632 0018 0494     		str	r4, [sp, #16]
  47:../../libdaisy/src/hid/midi.h ****         uart_config.parity     = UartHandler::Config::Parity::NONE;
 633              		.loc 7 47 32 view .LVU159
 634 001a CDE90243 		strd	r4, r3, [sp, #8]
 635              	.LBE234:
 636              	.LBE236:
 637              		.loc 7 96 9 view .LVU160
 638 001e C5E92A42 		strd	r4, r2, [r5, #168]
 639              	.LVL28:
 640              	.LBB237:
 641              	.LBI232:
  41:../../libdaisy/src/hid/midi.h ****     {
 642              		.loc 7 41 17 is_stmt 1 view .LVU161
 643              	.LBB235:
  43:../../libdaisy/src/hid/midi.h **** 
 644              		.loc 7 43 9 view .LVU162
  46:../../libdaisy/src/hid/midi.h ****         uart_config.stopbits   = UartHandler::Config::StopBits::BITS_1;
 645              		.loc 7 46 9 view .LVU163
  47:../../libdaisy/src/hid/midi.h ****         uart_config.parity     = UartHandler::Config::Parity::NONE;
 646              		.loc 7 47 9 view .LVU164
  48:../../libdaisy/src/hid/midi.h ****         uart_config.mode       = UartHandler::Config::Mode::TX_RX;
 647              		.loc 7 48 9 view .LVU165
  49:../../libdaisy/src/hid/midi.h ****         uart_config.wordlength = UartHandler::Config::WordLength::BITS_8;
 648              		.loc 7 49 9 view .LVU166
  50:../../libdaisy/src/hid/midi.h **** 
 649              		.loc 7 50 9 view .LVU167
  53:../../libdaisy/src/hid/midi.h ****         uart_config.pin_config.rx = config.rx;
 650              		.loc 7 53 9 view .LVU168
  54:../../libdaisy/src/hid/midi.h ****         uart_config.pin_config.tx = config.tx;
 651              		.loc 7 54 9 view .LVU169
  55:../../libdaisy/src/hid/midi.h **** 
 652              		.loc 7 55 9 view .LVU170
  46:../../libdaisy/src/hid/midi.h ****         uart_config.stopbits   = UartHandler::Config::StopBits::BITS_1;
 653              		.loc 7 46 32 is_stmt 0 view .LVU171
 654 0022 47F61223 		movw	r3, #31250
  55:../../libdaisy/src/hid/midi.h **** 
 655              		.loc 7 55 35 view .LVU172
 656 0026 02F57F02 		add	r2, r2, #16711680
  46:../../libdaisy/src/hid/midi.h ****         uart_config.stopbits   = UartHandler::Config::StopBits::BITS_1;
 657              		.loc 7 46 32 view .LVU173
 658 002a 0793     		str	r3, [sp, #28]
  57:../../libdaisy/src/hid/midi.h ****     }
 659              		.loc 7 57 9 is_stmt 1 view .LVU174
  55:../../libdaisy/src/hid/midi.h **** 
 660              		.loc 7 55 35 is_stmt 0 view .LVU175
 661 002c 02F57F42 		add	r2, r2, #65280
  49:../../libdaisy/src/hid/midi.h ****         uart_config.wordlength = UartHandler::Config::WordLength::BITS_8;
 662              		.loc 7 49 32 view .LVU176
 663 0030 0223     		movs	r3, #2
  55:../../libdaisy/src/hid/midi.h **** 
 664              		.loc 7 55 35 view .LVU177
 665 0032 0192     		str	r2, [sp, #4]
ARM GAS  /var/folders/0z/b9p8b05s1kb5msq549c5__rh0000gn/T//cciRiJ2K.s 			page 30


  49:../../libdaisy/src/hid/midi.h ****         uart_config.wordlength = UartHandler::Config::WordLength::BITS_8;
 666              		.loc 7 49 32 view .LVU178
 667 0034 0593     		str	r3, [sp, #20]
  57:../../libdaisy/src/hid/midi.h ****     }
 668              		.loc 7 57 19 view .LVU179
 669 0036 FFF7FEFF 		bl	_ZN5daisy11UartHandler4InitERKNS0_6ConfigE
 670              	.LVL29:
  57:../../libdaisy/src/hid/midi.h ****     }
 671              		.loc 7 57 19 view .LVU180
 672              	.LBE235:
 673              	.LBE237:
 674              	.LBB238:
 675              	.LBI238:
 676              		.file 11 "../../libdaisy/src/util/ringbuffer.h"
   1:../../libdaisy/src/util/ringbuffer.h **** #pragma once
   2:../../libdaisy/src/util/ringbuffer.h **** #ifndef DSY_RINGBUFFER_H
   3:../../libdaisy/src/util/ringbuffer.h **** #define DSY_RINGBUFFER_H
   4:../../libdaisy/src/util/ringbuffer.h **** 
   5:../../libdaisy/src/util/ringbuffer.h **** #include <algorithm>
   6:../../libdaisy/src/util/ringbuffer.h **** 
   7:../../libdaisy/src/util/ringbuffer.h **** namespace daisy
   8:../../libdaisy/src/util/ringbuffer.h **** {
   9:../../libdaisy/src/util/ringbuffer.h **** /** @addtogroup utility
  10:../../libdaisy/src/util/ringbuffer.h ****     @{
  11:../../libdaisy/src/util/ringbuffer.h **** */
  12:../../libdaisy/src/util/ringbuffer.h **** 
  13:../../libdaisy/src/util/ringbuffer.h **** /**
  14:../../libdaisy/src/util/ringbuffer.h **** Utility Ring Buffer \n 
  15:../../libdaisy/src/util/ringbuffer.h **** imported from pichenettes/stmlib
  16:../../libdaisy/src/util/ringbuffer.h **** */
  17:../../libdaisy/src/util/ringbuffer.h **** template <typename T, size_t size>
  18:../../libdaisy/src/util/ringbuffer.h **** class RingBuffer
  19:../../libdaisy/src/util/ringbuffer.h **** {
  20:../../libdaisy/src/util/ringbuffer.h ****   public:
  21:../../libdaisy/src/util/ringbuffer.h ****     RingBuffer() {}
  22:../../libdaisy/src/util/ringbuffer.h **** 
  23:../../libdaisy/src/util/ringbuffer.h ****     /** Initializes the Ring Buffer */
  24:../../libdaisy/src/util/ringbuffer.h ****     inline void Init() { read_ptr_ = write_ptr_ = 0; }
 677              		.loc 11 24 17 is_stmt 1 view .LVU181
 678              	.LBE238:
  97:../../libdaisy/src/hid/midi.h **** 
  98:../../libdaisy/src/hid/midi.h ****         transport_.Init(config_.transport_config);
  99:../../libdaisy/src/hid/midi.h **** 
 100:../../libdaisy/src/hid/midi.h ****         event_q_.Init();
 101:../../libdaisy/src/hid/midi.h ****         incoming_message_.type = MessageLast;
 679              		.loc 7 101 32 is_stmt 0 view .LVU182
 680 003a 0A23     		movs	r3, #10
 681              	.LBB241:
 682              	.LBB239:
 683              		.loc 11 24 49 view .LVU183
 684 003c C5F89C40 		str	r4, [r5, #156]
 685              	.LBE239:
 686              	.LBE241:
 102:../../libdaisy/src/hid/midi.h ****         pstate_                = ParserEmpty;
 687              		.loc 7 102 32 view .LVU184
 688 0040 3471     		strb	r4, [r6, #4]
 689              	.LBB242:
ARM GAS  /var/folders/0z/b9p8b05s1kb5msq549c5__rh0000gn/T//cciRiJ2K.s 			page 31


 690              	.LBB240:
 691              		.loc 11 24 36 view .LVU185
 692 0042 C5F89840 		str	r4, [r5, #152]
 693              	.LVL30:
 694              		.loc 11 24 36 view .LVU186
 695              	.LBE240:
 696              	.LBE242:
 101:../../libdaisy/src/hid/midi.h ****         pstate_                = ParserEmpty;
 697              		.loc 7 101 32 view .LVU187
 698 0046 3372     		strb	r3, [r6, #8]
 699              	.LBE243:
 700              	.LBE245:
 100:DrumModule.cpp **** }
 701              		.loc 8 100 1 view .LVU188
 702 0048 08B0     		add	sp, sp, #32
 703              		.cfi_def_cfa_offset 16
 704              		@ sp needed
 705 004a 70BD     		pop	{r4, r5, r6, pc}
 706              	.L40:
 707              		.align	2
 708              	.L39:
 709 004c 00000000 		.word	midi
 710 0050 01070106 		.word	100730625
 711              		.cfi_endproc
 712              	.LFE4250:
 714              		.section	.text._ZN5daisy11MidiHandlerINS_17MidiUartTransportEE5ParseEh,"axG",%progbits,_ZN5daisy11
 715              		.align	1
 716              		.p2align 2,,3
 717              		.weak	_ZN5daisy11MidiHandlerINS_17MidiUartTransportEE5ParseEh
 718              		.syntax unified
 719              		.thumb
 720              		.thumb_func
 721              		.fpu fpv5-d16
 723              	_ZN5daisy11MidiHandlerINS_17MidiUartTransportEE5ParseEh:
 724              	.LVL31:
 725              	.LFB4684:
 103:../../libdaisy/src/hid/midi.h ****     }
 104:../../libdaisy/src/hid/midi.h **** 
 105:../../libdaisy/src/hid/midi.h ****     /** Starts listening on the selected input mode(s). MidiEvent Queue will begin to fill, and can
 106:../../libdaisy/src/hid/midi.h ****     void StartReceive() { transport_.StartRx(); }
 107:../../libdaisy/src/hid/midi.h **** 
 108:../../libdaisy/src/hid/midi.h ****     /** Start listening */
 109:../../libdaisy/src/hid/midi.h ****     void Listen()
 110:../../libdaisy/src/hid/midi.h ****     {
 111:../../libdaisy/src/hid/midi.h ****         uint32_t now;
 112:../../libdaisy/src/hid/midi.h ****         now = System::GetNow();
 113:../../libdaisy/src/hid/midi.h ****         while(transport_.Readable())
 114:../../libdaisy/src/hid/midi.h ****         {
 115:../../libdaisy/src/hid/midi.h ****             last_read_ = now;
 116:../../libdaisy/src/hid/midi.h ****             Parse(transport_.Rx());
 117:../../libdaisy/src/hid/midi.h ****         }
 118:../../libdaisy/src/hid/midi.h **** 
 119:../../libdaisy/src/hid/midi.h ****         // In case of UART Error, (particularly
 120:../../libdaisy/src/hid/midi.h ****         //  overrun error), UART disables itself.
 121:../../libdaisy/src/hid/midi.h ****         // Flush the buff, and restart.
 122:../../libdaisy/src/hid/midi.h ****         if(!transport_.RxActive())
 123:../../libdaisy/src/hid/midi.h ****         {
ARM GAS  /var/folders/0z/b9p8b05s1kb5msq549c5__rh0000gn/T//cciRiJ2K.s 			page 32


 124:../../libdaisy/src/hid/midi.h ****             pstate_ = ParserEmpty;
 125:../../libdaisy/src/hid/midi.h ****             transport_.FlushRx();
 126:../../libdaisy/src/hid/midi.h ****             StartReceive();
 127:../../libdaisy/src/hid/midi.h ****         }
 128:../../libdaisy/src/hid/midi.h ****     }
 129:../../libdaisy/src/hid/midi.h **** 
 130:../../libdaisy/src/hid/midi.h ****     /** Checks if there are unhandled messages in the queue 
 131:../../libdaisy/src/hid/midi.h ****     \return True if there are events to be handled, else false.
 132:../../libdaisy/src/hid/midi.h ****      */
 133:../../libdaisy/src/hid/midi.h ****     bool HasEvents() const { return event_q_.readable(); }
 134:../../libdaisy/src/hid/midi.h **** 
 135:../../libdaisy/src/hid/midi.h **** 
 136:../../libdaisy/src/hid/midi.h ****     /** Pops the oldest unhandled MidiEvent from the internal queue
 137:../../libdaisy/src/hid/midi.h ****     \return The event to be handled
 138:../../libdaisy/src/hid/midi.h ****      */
 139:../../libdaisy/src/hid/midi.h ****     MidiEvent PopEvent() { return event_q_.Read(); }
 140:../../libdaisy/src/hid/midi.h **** 
 141:../../libdaisy/src/hid/midi.h ****     /** SendMessage
 142:../../libdaisy/src/hid/midi.h ****     Send raw bytes as message
 143:../../libdaisy/src/hid/midi.h ****     */
 144:../../libdaisy/src/hid/midi.h ****     void SendMessage(uint8_t* bytes, size_t size)
 145:../../libdaisy/src/hid/midi.h ****     {
 146:../../libdaisy/src/hid/midi.h ****         transport_.Tx(bytes, size);
 147:../../libdaisy/src/hid/midi.h ****     }
 148:../../libdaisy/src/hid/midi.h **** 
 149:../../libdaisy/src/hid/midi.h ****     /** Feed in bytes to state machine from a queue.
 150:../../libdaisy/src/hid/midi.h ****     Populates internal FIFO queue with MIDI Messages
 151:../../libdaisy/src/hid/midi.h ****     For example with uart:
 152:../../libdaisy/src/hid/midi.h ****     midi.Parse(uart.PopRx());
 153:../../libdaisy/src/hid/midi.h ****     \param byte &
 154:../../libdaisy/src/hid/midi.h ****     */
 155:../../libdaisy/src/hid/midi.h ****     void Parse(uint8_t byte)
 726              		.loc 7 155 10 is_stmt 1 view -0
 727              		.cfi_startproc
 728              		@ args = 0, pretend = 0, frame = 288
 729              		@ frame_needed = 0, uses_anonymous_args = 0
 730              		.loc 7 155 10 is_stmt 0 view .LVU190
 731 0000 0379     		ldrb	r3, [r0, #4]	@ zero_extendqisi2
 732 0002 2DE9F041 		push	{r4, r5, r6, r7, r8, lr}
 733              		.cfi_def_cfa_offset 24
 734              		.cfi_offset 4, -24
 735              		.cfi_offset 5, -20
 736              		.cfi_offset 6, -16
 737              		.cfi_offset 7, -12
 738              		.cfi_offset 8, -8
 739              		.cfi_offset 14, -4
 740 0006 0446     		mov	r4, r0
 741 0008 C8B0     		sub	sp, sp, #288
 742              		.cfi_def_cfa_offset 312
 743 000a 032B     		cmp	r3, #3
 744 000c 0CD8     		bhi	.L41
 745 000e DFE803F0 		tbb	[pc, r3]
 746              	.L44:
 747 0012 6A       		.byte	(.L47-.L44)/2
 748 0013 1D       		.byte	(.L46-.L44)/2
 749 0014 02       		.byte	(.L45-.L44)/2
 750 0015 0E       		.byte	(.L43-.L44)/2
ARM GAS  /var/folders/0z/b9p8b05s1kb5msq549c5__rh0000gn/T//cciRiJ2K.s 			page 33


 751              		.p2align 1
 752              	.L45:
 156:../../libdaisy/src/hid/midi.h ****     {
 157:../../libdaisy/src/hid/midi.h ****         switch(pstate_)
 158:../../libdaisy/src/hid/midi.h ****         {
 159:../../libdaisy/src/hid/midi.h ****             case ParserEmpty:
 160:../../libdaisy/src/hid/midi.h ****                 // check byte for valid Status Byte
 161:../../libdaisy/src/hid/midi.h ****                 if(byte & kStatusByteMask)
 162:../../libdaisy/src/hid/midi.h ****                 {
 163:../../libdaisy/src/hid/midi.h ****                     // Get MessageType, and Channel
 164:../../libdaisy/src/hid/midi.h ****                     incoming_message_.channel = byte & kChannelMask;
 165:../../libdaisy/src/hid/midi.h ****                     incoming_message_.type    = static_cast<MidiMessageType>(
 166:../../libdaisy/src/hid/midi.h ****                         (byte & kMessageMask) >> 4);
 167:../../libdaisy/src/hid/midi.h **** 
 168:../../libdaisy/src/hid/midi.h ****                     // Validate, and move on.
 169:../../libdaisy/src/hid/midi.h ****                     if(incoming_message_.type < MessageLast)
 170:../../libdaisy/src/hid/midi.h ****                     {
 171:../../libdaisy/src/hid/midi.h ****                         pstate_ = ParserHasStatus;
 172:../../libdaisy/src/hid/midi.h ****                         // Mark this status byte as running_status
 173:../../libdaisy/src/hid/midi.h ****                         running_status_ = incoming_message_.type;
 174:../../libdaisy/src/hid/midi.h **** 
 175:../../libdaisy/src/hid/midi.h ****                         if(running_status_ == SystemCommon)
 176:../../libdaisy/src/hid/midi.h ****                         {
 177:../../libdaisy/src/hid/midi.h ****                             incoming_message_.channel = 0;
 178:../../libdaisy/src/hid/midi.h ****                             //system real time = 1111 1xxx
 179:../../libdaisy/src/hid/midi.h ****                             if(byte & 0x08)
 180:../../libdaisy/src/hid/midi.h ****                             {
 181:../../libdaisy/src/hid/midi.h ****                                 incoming_message_.type = SystemRealTime;
 182:../../libdaisy/src/hid/midi.h ****                                 running_status_        = SystemRealTime;
 183:../../libdaisy/src/hid/midi.h ****                                 incoming_message_.srt_type
 184:../../libdaisy/src/hid/midi.h ****                                     = static_cast<SystemRealTimeType>(
 185:../../libdaisy/src/hid/midi.h ****                                         byte & kSystemRealTimeMask);
 186:../../libdaisy/src/hid/midi.h **** 
 187:../../libdaisy/src/hid/midi.h ****                                 //short circuit to start
 188:../../libdaisy/src/hid/midi.h ****                                 pstate_ = ParserEmpty;
 189:../../libdaisy/src/hid/midi.h ****                                 event_q_.Write(incoming_message_);
 190:../../libdaisy/src/hid/midi.h ****                             }
 191:../../libdaisy/src/hid/midi.h ****                             //system common
 192:../../libdaisy/src/hid/midi.h ****                             else
 193:../../libdaisy/src/hid/midi.h ****                             {
 194:../../libdaisy/src/hid/midi.h ****                                 incoming_message_.sc_type
 195:../../libdaisy/src/hid/midi.h ****                                     = static_cast<SystemCommonType>(byte
 196:../../libdaisy/src/hid/midi.h ****                                                                     & 0x07);
 197:../../libdaisy/src/hid/midi.h ****                                 //sysex
 198:../../libdaisy/src/hid/midi.h ****                                 if(incoming_message_.sc_type == SystemExclusive)
 199:../../libdaisy/src/hid/midi.h ****                                 {
 200:../../libdaisy/src/hid/midi.h ****                                     pstate_ = ParserSysEx;
 201:../../libdaisy/src/hid/midi.h ****                                     incoming_message_.sysex_message_len = 0;
 202:../../libdaisy/src/hid/midi.h ****                                 }
 203:../../libdaisy/src/hid/midi.h ****                                 //short circuit
 204:../../libdaisy/src/hid/midi.h ****                                 else if(incoming_message_.sc_type > SongSelect)
 205:../../libdaisy/src/hid/midi.h ****                                 {
 206:../../libdaisy/src/hid/midi.h ****                                     pstate_ = ParserEmpty;
 207:../../libdaisy/src/hid/midi.h ****                                     event_q_.Write(incoming_message_);
 208:../../libdaisy/src/hid/midi.h ****                                 }
 209:../../libdaisy/src/hid/midi.h ****                             }
 210:../../libdaisy/src/hid/midi.h ****                         }
ARM GAS  /var/folders/0z/b9p8b05s1kb5msq549c5__rh0000gn/T//cciRiJ2K.s 			page 34


 211:../../libdaisy/src/hid/midi.h ****                     }
 212:../../libdaisy/src/hid/midi.h ****                     // Else we'll keep waiting for a valid incoming status byte
 213:../../libdaisy/src/hid/midi.h ****                 }
 214:../../libdaisy/src/hid/midi.h ****                 else
 215:../../libdaisy/src/hid/midi.h ****                 {
 216:../../libdaisy/src/hid/midi.h ****                     // Handle as running status
 217:../../libdaisy/src/hid/midi.h ****                     incoming_message_.type    = running_status_;
 218:../../libdaisy/src/hid/midi.h ****                     incoming_message_.data[0] = byte & kDataByteMask;
 219:../../libdaisy/src/hid/midi.h ****                     pstate_                   = ParserHasData0;
 220:../../libdaisy/src/hid/midi.h ****                 }
 221:../../libdaisy/src/hid/midi.h ****                 break;
 222:../../libdaisy/src/hid/midi.h ****             case ParserHasStatus:
 223:../../libdaisy/src/hid/midi.h ****                 if((byte & kStatusByteMask) == 0)
 224:../../libdaisy/src/hid/midi.h ****                 {
 225:../../libdaisy/src/hid/midi.h ****                     incoming_message_.data[0] = byte & kDataByteMask;
 226:../../libdaisy/src/hid/midi.h ****                     if(running_status_ == ChannelPressure
 227:../../libdaisy/src/hid/midi.h ****                        || running_status_ == ProgramChange
 228:../../libdaisy/src/hid/midi.h ****                        || incoming_message_.sc_type == MTCQuarterFrame
 229:../../libdaisy/src/hid/midi.h ****                        || incoming_message_.sc_type == SongSelect)
 230:../../libdaisy/src/hid/midi.h ****                     {
 231:../../libdaisy/src/hid/midi.h ****                         //these are just one data byte, so we short circuit back to start
 232:../../libdaisy/src/hid/midi.h ****                         pstate_ = ParserEmpty;
 233:../../libdaisy/src/hid/midi.h ****                         event_q_.Write(incoming_message_);
 234:../../libdaisy/src/hid/midi.h ****                     }
 235:../../libdaisy/src/hid/midi.h ****                     else
 236:../../libdaisy/src/hid/midi.h ****                     {
 237:../../libdaisy/src/hid/midi.h ****                         pstate_ = ParserHasData0;
 238:../../libdaisy/src/hid/midi.h ****                     }
 239:../../libdaisy/src/hid/midi.h **** 
 240:../../libdaisy/src/hid/midi.h ****                     //ChannelModeMessages (reserved Control Changes)
 241:../../libdaisy/src/hid/midi.h ****                     if(running_status_ == ControlChange
 242:../../libdaisy/src/hid/midi.h ****                        && incoming_message_.data[0] > 119)
 243:../../libdaisy/src/hid/midi.h ****                     {
 244:../../libdaisy/src/hid/midi.h ****                         incoming_message_.type = ChannelMode;
 245:../../libdaisy/src/hid/midi.h ****                         running_status_        = ChannelMode;
 246:../../libdaisy/src/hid/midi.h ****                         incoming_message_.cm_type
 247:../../libdaisy/src/hid/midi.h ****                             = static_cast<ChannelModeType>(
 248:../../libdaisy/src/hid/midi.h ****                                 incoming_message_.data[0] - 120);
 249:../../libdaisy/src/hid/midi.h ****                     }
 250:../../libdaisy/src/hid/midi.h ****                 }
 251:../../libdaisy/src/hid/midi.h ****                 else
 252:../../libdaisy/src/hid/midi.h ****                 {
 253:../../libdaisy/src/hid/midi.h ****                     // invalid message go back to start ;p
 254:../../libdaisy/src/hid/midi.h ****                     pstate_ = ParserEmpty;
 255:../../libdaisy/src/hid/midi.h ****                 }
 256:../../libdaisy/src/hid/midi.h ****                 break;
 257:../../libdaisy/src/hid/midi.h ****             case ParserHasData0:
 258:../../libdaisy/src/hid/midi.h ****                 if((byte & kStatusByteMask) == 0)
 753              		.loc 7 258 28 view .LVU191
 754 0016 00F51045 		add	r5, r0, #36864
 755              		.loc 7 258 26 view .LVU192
 756 001a 95F8B430 		ldrb	r3, [r5, #180]	@ zero_extendqisi2
 757              		.loc 7 258 17 view .LVU193
 758 001e 0B40     		ands	r3, r1, r3
 759 0020 00F09580 		beq	.L91
 760              	.L55:
 254:../../libdaisy/src/hid/midi.h ****                 }
ARM GAS  /var/folders/0z/b9p8b05s1kb5msq549c5__rh0000gn/T//cciRiJ2K.s 			page 35


 761              		.loc 7 254 29 view .LVU194
 762 0024 0023     		movs	r3, #0
 763 0026 2371     		strb	r3, [r4, #4]
 764              	.LVL32:
 765              	.L41:
 259:../../libdaisy/src/hid/midi.h ****                 {
 260:../../libdaisy/src/hid/midi.h ****                     incoming_message_.data[1] = byte & kDataByteMask;
 261:../../libdaisy/src/hid/midi.h **** 
 262:../../libdaisy/src/hid/midi.h ****                     //velocity 0 NoteOns are NoteOffs
 263:../../libdaisy/src/hid/midi.h ****                     if(running_status_ == NoteOn
 264:../../libdaisy/src/hid/midi.h ****                        && incoming_message_.data[1] == 0)
 265:../../libdaisy/src/hid/midi.h ****                     {
 266:../../libdaisy/src/hid/midi.h ****                         incoming_message_.type = running_status_ = NoteOff;
 267:../../libdaisy/src/hid/midi.h ****                     }
 268:../../libdaisy/src/hid/midi.h **** 
 269:../../libdaisy/src/hid/midi.h ****                     // At this point the message is valid, and we can add this MidiEvent to the que
 270:../../libdaisy/src/hid/midi.h ****                     event_q_.Write(incoming_message_);
 271:../../libdaisy/src/hid/midi.h ****                 }
 272:../../libdaisy/src/hid/midi.h ****                 // Regardless, of whether the data was valid or not we go back to empty
 273:../../libdaisy/src/hid/midi.h ****                 // because either the message is queued for handling or its not.
 274:../../libdaisy/src/hid/midi.h ****                 pstate_ = ParserEmpty;
 275:../../libdaisy/src/hid/midi.h ****                 break;
 276:../../libdaisy/src/hid/midi.h ****             case ParserSysEx:
 277:../../libdaisy/src/hid/midi.h ****                 // end of sysex
 278:../../libdaisy/src/hid/midi.h ****                 if(byte == 0xf7)
 279:../../libdaisy/src/hid/midi.h ****                 {
 280:../../libdaisy/src/hid/midi.h ****                     pstate_ = ParserEmpty;
 281:../../libdaisy/src/hid/midi.h ****                     event_q_.Write(incoming_message_);
 282:../../libdaisy/src/hid/midi.h ****                 }
 283:../../libdaisy/src/hid/midi.h ****                 else if(incoming_message_.sysex_message_len < SYSEX_BUFFER_LEN)
 284:../../libdaisy/src/hid/midi.h ****                 {
 285:../../libdaisy/src/hid/midi.h ****                     incoming_message_
 286:../../libdaisy/src/hid/midi.h ****                         .sysex_data[incoming_message_.sysex_message_len]
 287:../../libdaisy/src/hid/midi.h ****                         = byte;
 288:../../libdaisy/src/hid/midi.h ****                     incoming_message_.sysex_message_len++;
 289:../../libdaisy/src/hid/midi.h ****                 }
 290:../../libdaisy/src/hid/midi.h ****                 break;
 291:../../libdaisy/src/hid/midi.h ****             default: break;
 292:../../libdaisy/src/hid/midi.h ****         }
 293:../../libdaisy/src/hid/midi.h ****     }
 766              		.loc 7 293 5 view .LVU195
 767 0028 48B0     		add	sp, sp, #288
 768              		.cfi_remember_state
 769              		.cfi_def_cfa_offset 24
 770              		@ sp needed
 771 002a BDE8F081 		pop	{r4, r5, r6, r7, r8, pc}
 772              	.LVL33:
 773              	.L43:
 774              		.cfi_restore_state
 278:../../libdaisy/src/hid/midi.h ****                 {
 775              		.loc 7 278 17 view .LVU196
 776 002e F729     		cmp	r1, #247
 777 0030 00F0BF80 		beq	.L92
 283:../../libdaisy/src/hid/midi.h ****                 {
 778              		.loc 7 283 22 view .LVU197
 779 0034 90F99220 		ldrsb	r2, [r0, #146]
 283:../../libdaisy/src/hid/midi.h ****                 {
ARM GAS  /var/folders/0z/b9p8b05s1kb5msq549c5__rh0000gn/T//cciRiJ2K.s 			page 36


 780              		.loc 7 283 43 view .LVU198
 781 0038 90F89230 		ldrb	r3, [r0, #146]	@ zero_extendqisi2
 283:../../libdaisy/src/hid/midi.h ****                 {
 782              		.loc 7 283 22 view .LVU199
 783 003c 002A     		cmp	r2, #0
 784 003e F3DB     		blt	.L41
 287:../../libdaisy/src/hid/midi.h ****                     incoming_message_.sysex_message_len++;
 785              		.loc 7 287 25 view .LVU200
 786 0040 C218     		adds	r2, r0, r3
 288:../../libdaisy/src/hid/midi.h ****                 }
 787              		.loc 7 288 21 view .LVU201
 788 0042 0133     		adds	r3, r3, #1
 287:../../libdaisy/src/hid/midi.h ****                     incoming_message_.sysex_message_len++;
 789              		.loc 7 287 25 view .LVU202
 790 0044 9174     		strb	r1, [r2, #18]
 288:../../libdaisy/src/hid/midi.h ****                 }
 791              		.loc 7 288 21 view .LVU203
 792 0046 80F89230 		strb	r3, [r0, #146]
 793              		.loc 7 293 5 view .LVU204
 794 004a EDE7     		b	.L41
 795              	.L46:
 223:../../libdaisy/src/hid/midi.h ****                 {
 796              		.loc 7 223 28 view .LVU205
 797 004c 00F51045 		add	r5, r0, #36864
 223:../../libdaisy/src/hid/midi.h ****                 {
 798              		.loc 7 223 26 view .LVU206
 799 0050 95F8B430 		ldrb	r3, [r5, #180]	@ zero_extendqisi2
 223:../../libdaisy/src/hid/midi.h ****                 {
 800              		.loc 7 223 17 view .LVU207
 801 0054 1942     		tst	r1, r3
 802 0056 E5D1     		bne	.L55
 225:../../libdaisy/src/hid/midi.h ****                     if(running_status_ == ChannelPressure
 803              		.loc 7 225 54 view .LVU208
 804 0058 95F8B680 		ldrb	r8, [r5, #182]	@ zero_extendqisi2
 805 005c 01EA0808 		and	r8, r1, r8
 225:../../libdaisy/src/hid/midi.h ****                     if(running_status_ == ChannelPressure
 806              		.loc 7 225 47 view .LVU209
 807 0060 80F81080 		strb	r8, [r0, #16]
 226:../../libdaisy/src/hid/midi.h ****                        || running_status_ == ProgramChange
 808              		.loc 7 226 24 view .LVU210
 809 0064 95F8A470 		ldrb	r7, [r5, #164]	@ zero_extendqisi2
 226:../../libdaisy/src/hid/midi.h ****                        || running_status_ == ProgramChange
 810              		.loc 7 226 21 view .LVU211
 811 0068 3B1F     		subs	r3, r7, #4
 812 006a 012B     		cmp	r3, #1
 813 006c 06D9     		bls	.L56
 228:../../libdaisy/src/hid/midi.h ****                        || incoming_message_.sc_type == SongSelect)
 814              		.loc 7 228 24 view .LVU212
 815 006e 90F89330 		ldrb	r3, [r0, #147]	@ zero_extendqisi2
 229:../../libdaisy/src/hid/midi.h ****                     {
 816              		.loc 7 229 24 view .LVU213
 817 0072 03F0FD03 		and	r3, r3, #253
 818 0076 012B     		cmp	r3, #1
 819 0078 40F0C580 		bne	.L57
 820              	.L56:
 232:../../libdaisy/src/hid/midi.h ****                         event_q_.Write(incoming_message_);
 821              		.loc 7 232 33 view .LVU214
ARM GAS  /var/folders/0z/b9p8b05s1kb5msq549c5__rh0000gn/T//cciRiJ2K.s 			page 37


 822 007c 0023     		movs	r3, #0
 823 007e 6E46     		mov	r6, sp
 824 0080 9022     		movs	r2, #144
 825 0082 04F10801 		add	r1, r4, #8
 826              	.LVL34:
 232:../../libdaisy/src/hid/midi.h ****                         event_q_.Write(incoming_message_);
 827              		.loc 7 232 33 view .LVU215
 828 0086 3046     		mov	r0, r6
 829              	.LVL35:
 232:../../libdaisy/src/hid/midi.h ****                         event_q_.Write(incoming_message_);
 830              		.loc 7 232 33 view .LVU216
 831 0088 2371     		strb	r3, [r4, #4]
 832              	.LVL36:
 232:../../libdaisy/src/hid/midi.h ****                         event_q_.Write(incoming_message_);
 833              		.loc 7 232 33 view .LVU217
 834 008a FFF7FEFF 		bl	memcpy
 835              	.LVL37:
 836              	.LBB276:
 837              	.LBI276:
  25:../../libdaisy/src/util/ringbuffer.h **** 
  26:../../libdaisy/src/util/ringbuffer.h ****     /** \return The total size of the ring buffer */
  27:../../libdaisy/src/util/ringbuffer.h ****     inline size_t capacity() const { return size; }
  28:../../libdaisy/src/util/ringbuffer.h **** 
  29:../../libdaisy/src/util/ringbuffer.h ****     /** \return the number of samples that can be written to ring buffer without overwriting unread
  30:../../libdaisy/src/util/ringbuffer.h ****     inline size_t writable() const
  31:../../libdaisy/src/util/ringbuffer.h ****     {
  32:../../libdaisy/src/util/ringbuffer.h ****         return (read_ptr_ - write_ptr_ - 1) % size;
  33:../../libdaisy/src/util/ringbuffer.h ****     }
  34:../../libdaisy/src/util/ringbuffer.h **** 
  35:../../libdaisy/src/util/ringbuffer.h ****     /** \return number of unread elements in ring buffer */
  36:../../libdaisy/src/util/ringbuffer.h ****     inline size_t readable() const { return (write_ptr_ - read_ptr_) % size; }
  37:../../libdaisy/src/util/ringbuffer.h **** 
  38:../../libdaisy/src/util/ringbuffer.h ****     /** \returns True, if the buffer is empty. */
  39:../../libdaisy/src/util/ringbuffer.h ****     inline bool isEmpty() const { return write_ptr_ == read_ptr_; }
  40:../../libdaisy/src/util/ringbuffer.h **** 
  41:../../libdaisy/src/util/ringbuffer.h ****     /** Writes the value to the next available position in the ring buffer
  42:../../libdaisy/src/util/ringbuffer.h ****     \param v Value to write
  43:../../libdaisy/src/util/ringbuffer.h ****     */
  44:../../libdaisy/src/util/ringbuffer.h ****     inline void Write(T v)
 838              		.loc 11 44 17 is_stmt 1 view .LVU218
 839              	.L58:
 840              	.LBB277:
  45:../../libdaisy/src/util/ringbuffer.h ****     {
  46:../../libdaisy/src/util/ringbuffer.h ****         while(!writable())
 841              		.loc 11 46 24 view .LVU219
 842              	.LBB278:
 843              	.LBI278:
  30:../../libdaisy/src/util/ringbuffer.h ****     {
 844              		.loc 11 30 19 view .LVU220
 845              	.LBB279:
  32:../../libdaisy/src/util/ringbuffer.h ****     }
 846              		.loc 11 32 17 is_stmt 0 view .LVU221
 847 008e D5F89830 		ldr	r3, [r5, #152]
  32:../../libdaisy/src/util/ringbuffer.h ****     }
 848              		.loc 11 32 29 view .LVU222
 849 0092 D5F89C20 		ldr	r2, [r5, #156]
 850              	.LVL38:
ARM GAS  /var/folders/0z/b9p8b05s1kb5msq549c5__rh0000gn/T//cciRiJ2K.s 			page 38


  32:../../libdaisy/src/util/ringbuffer.h ****     }
 851              		.loc 11 32 40 view .LVU223
 852 0096 013B     		subs	r3, r3, #1
 853 0098 9B1A     		subs	r3, r3, r2
  32:../../libdaisy/src/util/ringbuffer.h ****     }
 854              		.loc 11 32 47 view .LVU224
 855 009a DBB2     		uxtb	r3, r3
 856              	.LBE279:
 857              	.LBE278:
 858              		.loc 11 46 24 view .LVU225
 859 009c 002B     		cmp	r3, #0
 860 009e F6D0     		beq	.L58
 861              	.LVL39:
 862              		.loc 11 46 24 view .LVU226
 863 00a0 9022     		movs	r2, #144
 864 00a2 3146     		mov	r1, r6
 865 00a4 0DEB0200 		add	r0, sp, r2
 866 00a8 FFF7FEFF 		bl	memcpy
 867              	.LVL40:
 868              	.LBB280:
 869              	.LBI280:
  47:../../libdaisy/src/util/ringbuffer.h ****             ;
  48:../../libdaisy/src/util/ringbuffer.h ****         Overwrite(v);
  49:../../libdaisy/src/util/ringbuffer.h ****     }
  50:../../libdaisy/src/util/ringbuffer.h **** 
  51:../../libdaisy/src/util/ringbuffer.h ****     /** Writes the new element to the ring buffer, overwriting unread data if necessary. 
  52:../../libdaisy/src/util/ringbuffer.h ****     \param v Value to overwrite
  53:../../libdaisy/src/util/ringbuffer.h ****      */
  54:../../libdaisy/src/util/ringbuffer.h ****     inline void Overwrite(T v)
 870              		.loc 11 54 17 is_stmt 1 view .LVU227
 871              	.LBB281:
  55:../../libdaisy/src/util/ringbuffer.h ****     {
  56:../../libdaisy/src/util/ringbuffer.h ****         size_t w   = write_ptr_;
 872              		.loc 11 56 16 is_stmt 0 view .LVU228
 873 00ac D5F89C60 		ldr	r6, [r5, #156]
 874              	.LVL41:
  57:../../libdaisy/src/util/ringbuffer.h ****         buffer_[w] = v;
 875              		.loc 11 57 9 view .LVU229
 876 00b0 24A9     		add	r1, sp, #144
 877 00b2 9022     		movs	r2, #144
 878 00b4 06EBC600 		add	r0, r6, r6, lsl #3
  58:../../libdaisy/src/util/ringbuffer.h ****         write_ptr_ = (w + 1) % size;
 879              		.loc 11 58 25 view .LVU230
 880 00b8 0136     		adds	r6, r6, #1
 881              	.LVL42:
  57:../../libdaisy/src/util/ringbuffer.h ****         buffer_[w] = v;
 882              		.loc 11 57 9 view .LVU231
 883 00ba 04EB0010 		add	r0, r4, r0, lsl #4
 884              		.loc 11 58 30 view .LVU232
 885 00be F6B2     		uxtb	r6, r6
 886              	.LVL43:
  57:../../libdaisy/src/util/ringbuffer.h ****         buffer_[w] = v;
 887              		.loc 11 57 9 view .LVU233
 888 00c0 9830     		adds	r0, r0, #152
 889 00c2 FFF7FEFF 		bl	memcpy
 890              	.LVL44:
 891              		.loc 11 58 20 view .LVU234
ARM GAS  /var/folders/0z/b9p8b05s1kb5msq549c5__rh0000gn/T//cciRiJ2K.s 			page 39


 892 00c6 C5F89C60 		str	r6, [r5, #156]
 893              	.LVL45:
 894              	.L59:
 895              		.loc 11 58 20 view .LVU235
 896              	.LBE281:
 897              	.LBE280:
 898              	.LBE277:
 899              	.LBE276:
 242:../../libdaisy/src/hid/midi.h ****                     {
 900              		.loc 7 242 24 view .LVU236
 901 00ca B8F1770F 		cmp	r8, #119
 902 00ce ABD9     		bls	.L41
 903 00d0 032F     		cmp	r7, #3
 904 00d2 A9D1     		bne	.L41
 244:../../libdaisy/src/hid/midi.h ****                         running_status_        = ChannelMode;
 905              		.loc 7 244 48 view .LVU237
 906 00d4 0923     		movs	r3, #9
 248:../../libdaisy/src/hid/midi.h ****                     }
 907              		.loc 7 248 59 view .LVU238
 908 00d6 A8F17801 		sub	r1, r8, #120
 244:../../libdaisy/src/hid/midi.h ****                         running_status_        = ChannelMode;
 909              		.loc 7 244 48 view .LVU239
 910 00da 2372     		strb	r3, [r4, #8]
 245:../../libdaisy/src/hid/midi.h ****                         incoming_message_.cm_type
 911              		.loc 7 245 48 view .LVU240
 912 00dc 85F8A430 		strb	r3, [r5, #164]
 247:../../libdaisy/src/hid/midi.h ****                                 incoming_message_.data[0] - 120);
 913              		.loc 7 247 29 view .LVU241
 914 00e0 84F89510 		strb	r1, [r4, #149]
 915 00e4 A0E7     		b	.L41
 916              	.LVL46:
 917              	.L47:
 161:../../libdaisy/src/hid/midi.h ****                 {
 918              		.loc 7 161 27 view .LVU242
 919 00e6 00F51045 		add	r5, r0, #36864
 161:../../libdaisy/src/hid/midi.h ****                 {
 920              		.loc 7 161 25 view .LVU243
 921 00ea 95F8B430 		ldrb	r3, [r5, #180]	@ zero_extendqisi2
 161:../../libdaisy/src/hid/midi.h ****                 {
 922              		.loc 7 161 17 view .LVU244
 923 00ee 1942     		tst	r1, r3
 924 00f0 21D0     		beq	.L48
 164:../../libdaisy/src/hid/midi.h ****                     incoming_message_.type    = static_cast<MidiMessageType>(
 925              		.loc 7 164 54 view .LVU245
 926 00f2 95F8B830 		ldrb	r3, [r5, #184]	@ zero_extendqisi2
 927 00f6 0B40     		ands	r3, r3, r1
 928 00f8 C360     		str	r3, [r0, #12]
 166:../../libdaisy/src/hid/midi.h **** 
 929              		.loc 7 166 31 view .LVU246
 930 00fa 95F8B530 		ldrb	r3, [r5, #181]	@ zero_extendqisi2
 166:../../libdaisy/src/hid/midi.h **** 
 931              		.loc 7 166 47 view .LVU247
 932 00fe 0B40     		ands	r3, r3, r1
 933 0100 1B09     		lsrs	r3, r3, #4
 169:../../libdaisy/src/hid/midi.h ****                     {
 934              		.loc 7 169 21 view .LVU248
 935 0102 092B     		cmp	r3, #9
ARM GAS  /var/folders/0z/b9p8b05s1kb5msq549c5__rh0000gn/T//cciRiJ2K.s 			page 40


 165:../../libdaisy/src/hid/midi.h ****                         (byte & kMessageMask) >> 4);
 936              		.loc 7 165 47 view .LVU249
 937 0104 0372     		strb	r3, [r0, #8]
 169:../../libdaisy/src/hid/midi.h ****                     {
 938              		.loc 7 169 21 view .LVU250
 939 0106 8FD8     		bhi	.L41
 171:../../libdaisy/src/hid/midi.h ****                         // Mark this status byte as running_status
 940              		.loc 7 171 33 view .LVU251
 941 0108 0122     		movs	r2, #1
 175:../../libdaisy/src/hid/midi.h ****                         {
 942              		.loc 7 175 25 view .LVU252
 943 010a 072B     		cmp	r3, #7
 171:../../libdaisy/src/hid/midi.h ****                         // Mark this status byte as running_status
 944              		.loc 7 171 33 view .LVU253
 945 010c 0271     		strb	r2, [r0, #4]
 173:../../libdaisy/src/hid/midi.h **** 
 946              		.loc 7 173 41 view .LVU254
 947 010e 85F8A430 		strb	r3, [r5, #164]
 175:../../libdaisy/src/hid/midi.h ****                         {
 948              		.loc 7 175 25 view .LVU255
 949 0112 89D1     		bne	.L41
 177:../../libdaisy/src/hid/midi.h ****                             //system real time = 1111 1xxx
 950              		.loc 7 177 55 view .LVU256
 951 0114 0023     		movs	r3, #0
 952 0116 C360     		str	r3, [r0, #12]
 179:../../libdaisy/src/hid/midi.h ****                             {
 953              		.loc 7 179 29 view .LVU257
 954 0118 11F00800 		ands	r0, r1, #8
 955              	.LVL47:
 179:../../libdaisy/src/hid/midi.h ****                             {
 956              		.loc 7 179 29 view .LVU258
 957 011c 40F0A480 		bne	.L93
 196:../../libdaisy/src/hid/midi.h ****                                 //sysex
 958              		.loc 7 196 69 view .LVU259
 959 0120 01F00703 		and	r3, r1, #7
 195:../../libdaisy/src/hid/midi.h ****                                                                     & 0x07);
 960              		.loc 7 195 37 view .LVU260
 961 0124 84F89330 		strb	r3, [r4, #147]
 198:../../libdaisy/src/hid/midi.h ****                                 {
 962              		.loc 7 198 33 view .LVU261
 963 0128 002B     		cmp	r3, #0
 964 012a 73D1     		bne	.L53
 200:../../libdaisy/src/hid/midi.h ****                                     incoming_message_.sysex_message_len = 0;
 965              		.loc 7 200 45 view .LVU262
 966 012c 0322     		movs	r2, #3
 201:../../libdaisy/src/hid/midi.h ****                                 }
 967              		.loc 7 201 73 view .LVU263
 968 012e 84F89230 		strb	r3, [r4, #146]
 200:../../libdaisy/src/hid/midi.h ****                                     incoming_message_.sysex_message_len = 0;
 969              		.loc 7 200 45 view .LVU264
 970 0132 2271     		strb	r2, [r4, #4]
 971 0134 78E7     		b	.L41
 972              	.LVL48:
 973              	.L48:
 217:../../libdaisy/src/hid/midi.h ****                     incoming_message_.data[0] = byte & kDataByteMask;
 974              		.loc 7 217 47 view .LVU265
 975 0136 95F8A430 		ldrb	r3, [r5, #164]	@ zero_extendqisi2
ARM GAS  /var/folders/0z/b9p8b05s1kb5msq549c5__rh0000gn/T//cciRiJ2K.s 			page 41


 219:../../libdaisy/src/hid/midi.h ****                 }
 976              		.loc 7 219 47 view .LVU266
 977 013a 0222     		movs	r2, #2
 217:../../libdaisy/src/hid/midi.h ****                     incoming_message_.data[0] = byte & kDataByteMask;
 978              		.loc 7 217 47 view .LVU267
 979 013c 0372     		strb	r3, [r0, #8]
 218:../../libdaisy/src/hid/midi.h ****                     pstate_                   = ParserHasData0;
 980              		.loc 7 218 54 view .LVU268
 981 013e 95F8B630 		ldrb	r3, [r5, #182]	@ zero_extendqisi2
 219:../../libdaisy/src/hid/midi.h ****                 }
 982              		.loc 7 219 47 view .LVU269
 983 0142 0271     		strb	r2, [r0, #4]
 218:../../libdaisy/src/hid/midi.h ****                     pstate_                   = ParserHasData0;
 984              		.loc 7 218 54 view .LVU270
 985 0144 1940     		ands	r1, r1, r3
 986              	.LVL49:
 218:../../libdaisy/src/hid/midi.h ****                     pstate_                   = ParserHasData0;
 987              		.loc 7 218 47 view .LVU271
 988 0146 0174     		strb	r1, [r0, #16]
 989              		.loc 7 293 5 view .LVU272
 990 0148 48B0     		add	sp, sp, #288
 991              		.cfi_remember_state
 992              		.cfi_def_cfa_offset 24
 993              		@ sp needed
 994 014a BDE8F081 		pop	{r4, r5, r6, r7, r8, pc}
 995              	.LVL50:
 996              	.L91:
 997              		.cfi_restore_state
 260:../../libdaisy/src/hid/midi.h **** 
 998              		.loc 7 260 54 view .LVU273
 999 014e 95F8B620 		ldrb	r2, [r5, #182]	@ zero_extendqisi2
 1000 0152 1140     		ands	r1, r1, r2
 1001              	.LVL51:
 260:../../libdaisy/src/hid/midi.h **** 
 1002              		.loc 7 260 47 view .LVU274
 1003 0154 4174     		strb	r1, [r0, #17]
 263:../../libdaisy/src/hid/midi.h ****                        && incoming_message_.data[1] == 0)
 1004              		.loc 7 263 21 view .LVU275
 1005 0156 95F8A420 		ldrb	r2, [r5, #164]	@ zero_extendqisi2
 264:../../libdaisy/src/hid/midi.h ****                     {
 1006              		.loc 7 264 24 view .LVU276
 1007 015a 012A     		cmp	r2, #1
 1008 015c 01D1     		bne	.L60
 1009 015e 0029     		cmp	r1, #0
 1010 0160 54D0     		beq	.L94
 1011              	.L60:
 1012              	.LVL52:
 264:../../libdaisy/src/hid/midi.h ****                     {
 1013              		.loc 7 264 24 view .LVU277
 1014 0162 6E46     		mov	r6, sp
 1015 0164 9022     		movs	r2, #144
 1016 0166 04F10801 		add	r1, r4, #8
 1017 016a 3046     		mov	r0, r6
 1018              	.LVL53:
 264:../../libdaisy/src/hid/midi.h ****                     {
 1019              		.loc 7 264 24 view .LVU278
 1020 016c FFF7FEFF 		bl	memcpy
ARM GAS  /var/folders/0z/b9p8b05s1kb5msq549c5__rh0000gn/T//cciRiJ2K.s 			page 42


 1021              	.LVL54:
 1022              	.LBB282:
 1023              	.LBI282:
  44:../../libdaisy/src/util/ringbuffer.h ****     {
 1024              		.loc 11 44 17 is_stmt 1 view .LVU279
 1025              	.L61:
 1026              	.LBB283:
  46:../../libdaisy/src/util/ringbuffer.h ****             ;
 1027              		.loc 11 46 24 view .LVU280
 1028              	.LBB284:
 1029              	.LBI284:
  30:../../libdaisy/src/util/ringbuffer.h ****     {
 1030              		.loc 11 30 19 view .LVU281
 1031              	.LBB285:
  32:../../libdaisy/src/util/ringbuffer.h ****     }
 1032              		.loc 11 32 17 is_stmt 0 view .LVU282
 1033 0170 D5F89830 		ldr	r3, [r5, #152]
  32:../../libdaisy/src/util/ringbuffer.h ****     }
 1034              		.loc 11 32 29 view .LVU283
 1035 0174 D5F89C20 		ldr	r2, [r5, #156]
 1036              	.LVL55:
  32:../../libdaisy/src/util/ringbuffer.h ****     }
 1037              		.loc 11 32 40 view .LVU284
 1038 0178 013B     		subs	r3, r3, #1
 1039 017a 9B1A     		subs	r3, r3, r2
  32:../../libdaisy/src/util/ringbuffer.h ****     }
 1040              		.loc 11 32 47 view .LVU285
 1041 017c DBB2     		uxtb	r3, r3
 1042              	.LBE285:
 1043              	.LBE284:
  46:../../libdaisy/src/util/ringbuffer.h ****             ;
 1044              		.loc 11 46 24 view .LVU286
 1045 017e 002B     		cmp	r3, #0
 1046 0180 F6D0     		beq	.L61
 1047              	.LVL56:
  46:../../libdaisy/src/util/ringbuffer.h ****             ;
 1048              		.loc 11 46 24 view .LVU287
 1049 0182 9022     		movs	r2, #144
 1050 0184 3146     		mov	r1, r6
 1051 0186 0DEB0200 		add	r0, sp, r2
 1052 018a FFF7FEFF 		bl	memcpy
 1053              	.LVL57:
 1054              	.LBB286:
 1055              	.LBI286:
  54:../../libdaisy/src/util/ringbuffer.h ****     {
 1056              		.loc 11 54 17 is_stmt 1 view .LVU288
 1057              	.LBB287:
  56:../../libdaisy/src/util/ringbuffer.h ****         buffer_[w] = v;
 1058              		.loc 11 56 16 is_stmt 0 view .LVU289
 1059 018e D5F89C60 		ldr	r6, [r5, #156]
 1060              	.LVL58:
  57:../../libdaisy/src/util/ringbuffer.h ****         write_ptr_ = (w + 1) % size;
 1061              		.loc 11 57 9 view .LVU290
 1062 0192 24A9     		add	r1, sp, #144
 1063 0194 9022     		movs	r2, #144
 1064 0196 06EBC600 		add	r0, r6, r6, lsl #3
 1065              		.loc 11 58 25 view .LVU291
ARM GAS  /var/folders/0z/b9p8b05s1kb5msq549c5__rh0000gn/T//cciRiJ2K.s 			page 43


 1066 019a 0136     		adds	r6, r6, #1
 1067              	.LVL59:
  57:../../libdaisy/src/util/ringbuffer.h ****         write_ptr_ = (w + 1) % size;
 1068              		.loc 11 57 9 view .LVU292
 1069 019c 04EB0010 		add	r0, r4, r0, lsl #4
 1070              		.loc 11 58 30 view .LVU293
 1071 01a0 F6B2     		uxtb	r6, r6
 1072              	.LVL60:
  57:../../libdaisy/src/util/ringbuffer.h ****         write_ptr_ = (w + 1) % size;
 1073              		.loc 11 57 9 view .LVU294
 1074 01a2 9830     		adds	r0, r0, #152
 1075 01a4 FFF7FEFF 		bl	memcpy
 1076              	.LVL61:
 1077              	.LBE287:
 1078              	.LBE286:
 1079              	.LBE283:
 1080              	.LBE282:
 254:../../libdaisy/src/hid/midi.h ****                 }
 1081              		.loc 7 254 29 view .LVU295
 1082 01a8 0023     		movs	r3, #0
 1083              	.LBB291:
 1084              	.LBB290:
 1085              	.LBB289:
 1086              	.LBB288:
 1087              		.loc 11 58 20 view .LVU296
 1088 01aa C5F89C60 		str	r6, [r5, #156]
 1089              	.LVL62:
 1090              		.loc 11 58 20 view .LVU297
 1091              	.LBE288:
 1092              	.LBE289:
 1093              	.LBE290:
 1094              	.LBE291:
 254:../../libdaisy/src/hid/midi.h ****                 }
 1095              		.loc 7 254 29 view .LVU298
 1096 01ae 2371     		strb	r3, [r4, #4]
 1097 01b0 3AE7     		b	.L41
 1098              	.LVL63:
 1099              	.L92:
 280:../../libdaisy/src/hid/midi.h ****                     event_q_.Write(incoming_message_);
 1100              		.loc 7 280 29 view .LVU299
 1101 01b2 0023     		movs	r3, #0
 1102 01b4 6E46     		mov	r6, sp
 1103 01b6 00F10801 		add	r1, r0, #8
 1104              	.LVL64:
 280:../../libdaisy/src/hid/midi.h ****                     event_q_.Write(incoming_message_);
 1105              		.loc 7 280 29 view .LVU300
 1106 01ba 00F51045 		add	r5, r0, #36864
 1107 01be 0371     		strb	r3, [r0, #4]
 1108              	.LVL65:
 280:../../libdaisy/src/hid/midi.h ****                     event_q_.Write(incoming_message_);
 1109              		.loc 7 280 29 view .LVU301
 1110 01c0 9022     		movs	r2, #144
 1111 01c2 3046     		mov	r0, r6
 1112              	.LVL66:
 280:../../libdaisy/src/hid/midi.h ****                     event_q_.Write(incoming_message_);
 1113              		.loc 7 280 29 view .LVU302
 1114 01c4 FFF7FEFF 		bl	memcpy
ARM GAS  /var/folders/0z/b9p8b05s1kb5msq549c5__rh0000gn/T//cciRiJ2K.s 			page 44


 1115              	.LVL67:
 1116              	.LBB292:
 1117              	.LBI292:
  44:../../libdaisy/src/util/ringbuffer.h ****     {
 1118              		.loc 11 44 17 is_stmt 1 view .LVU303
 1119              	.L63:
 1120              	.LBB293:
  46:../../libdaisy/src/util/ringbuffer.h ****             ;
 1121              		.loc 11 46 24 view .LVU304
 1122              	.LBB294:
 1123              	.LBI294:
  30:../../libdaisy/src/util/ringbuffer.h ****     {
 1124              		.loc 11 30 19 view .LVU305
 1125              	.LBB295:
  32:../../libdaisy/src/util/ringbuffer.h ****     }
 1126              		.loc 11 32 17 is_stmt 0 view .LVU306
 1127 01c8 D5F89830 		ldr	r3, [r5, #152]
  32:../../libdaisy/src/util/ringbuffer.h ****     }
 1128              		.loc 11 32 29 view .LVU307
 1129 01cc D5F89C20 		ldr	r2, [r5, #156]
 1130              	.LVL68:
  32:../../libdaisy/src/util/ringbuffer.h ****     }
 1131              		.loc 11 32 40 view .LVU308
 1132 01d0 013B     		subs	r3, r3, #1
 1133 01d2 9B1A     		subs	r3, r3, r2
  32:../../libdaisy/src/util/ringbuffer.h ****     }
 1134              		.loc 11 32 47 view .LVU309
 1135 01d4 DBB2     		uxtb	r3, r3
 1136              	.LBE295:
 1137              	.LBE294:
  46:../../libdaisy/src/util/ringbuffer.h ****             ;
 1138              		.loc 11 46 24 view .LVU310
 1139 01d6 002B     		cmp	r3, #0
 1140 01d8 F6D0     		beq	.L63
 1141              	.LVL69:
  46:../../libdaisy/src/util/ringbuffer.h ****             ;
 1142              		.loc 11 46 24 view .LVU311
 1143 01da 9022     		movs	r2, #144
 1144 01dc 3146     		mov	r1, r6
 1145 01de 0DEB0200 		add	r0, sp, r2
 1146 01e2 FFF7FEFF 		bl	memcpy
 1147              	.LVL70:
 1148              	.LBB296:
 1149              	.LBI296:
  54:../../libdaisy/src/util/ringbuffer.h ****     {
 1150              		.loc 11 54 17 is_stmt 1 view .LVU312
 1151              	.LBB297:
  56:../../libdaisy/src/util/ringbuffer.h ****         buffer_[w] = v;
 1152              		.loc 11 56 16 is_stmt 0 view .LVU313
 1153 01e6 D5F89C60 		ldr	r6, [r5, #156]
 1154              	.LVL71:
  57:../../libdaisy/src/util/ringbuffer.h ****         write_ptr_ = (w + 1) % size;
 1155              		.loc 11 57 9 view .LVU314
 1156 01ea 24A9     		add	r1, sp, #144
 1157 01ec 9022     		movs	r2, #144
 1158 01ee 06EBC600 		add	r0, r6, r6, lsl #3
 1159              		.loc 11 58 25 view .LVU315
ARM GAS  /var/folders/0z/b9p8b05s1kb5msq549c5__rh0000gn/T//cciRiJ2K.s 			page 45


 1160 01f2 0136     		adds	r6, r6, #1
 1161              	.LVL72:
  57:../../libdaisy/src/util/ringbuffer.h ****         write_ptr_ = (w + 1) % size;
 1162              		.loc 11 57 9 view .LVU316
 1163 01f4 04EB0010 		add	r0, r4, r0, lsl #4
 1164              		.loc 11 58 30 view .LVU317
 1165 01f8 F6B2     		uxtb	r6, r6
 1166              	.LVL73:
  57:../../libdaisy/src/util/ringbuffer.h ****         write_ptr_ = (w + 1) % size;
 1167              		.loc 11 57 9 view .LVU318
 1168 01fa 9830     		adds	r0, r0, #152
 1169 01fc FFF7FEFF 		bl	memcpy
 1170              	.LVL74:
 1171              		.loc 11 58 20 view .LVU319
 1172 0200 C5F89C60 		str	r6, [r5, #156]
 1173              	.LVL75:
 1174              		.loc 11 58 20 view .LVU320
 1175              	.LBE297:
 1176              	.LBE296:
 1177              	.LBE293:
 1178              	.LBE292:
 1179 0204 10E7     		b	.L41
 1180              	.LVL76:
 1181              	.L57:
 237:../../libdaisy/src/hid/midi.h ****                     }
 1182              		.loc 7 237 33 view .LVU321
 1183 0206 0223     		movs	r3, #2
 1184 0208 0371     		strb	r3, [r0, #4]
 1185 020a 5EE7     		b	.L59
 1186              	.LVL77:
 1187              	.L94:
 266:../../libdaisy/src/hid/midi.h ****                     }
 1188              		.loc 7 266 66 view .LVU322
 1189 020c 85F8A430 		strb	r3, [r5, #164]
 266:../../libdaisy/src/hid/midi.h ****                     }
 1190              		.loc 7 266 48 view .LVU323
 1191 0210 0372     		strb	r3, [r0, #8]
 1192 0212 A6E7     		b	.L60
 1193              	.LVL78:
 1194              	.L53:
 204:../../libdaisy/src/hid/midi.h ****                                 {
 1195              		.loc 7 204 38 view .LVU324
 1196 0214 4B07     		lsls	r3, r1, #29
 1197 0216 7FF507AF 		bpl	.L41
 1198 021a 6E46     		mov	r6, sp
 206:../../libdaisy/src/hid/midi.h ****                                     event_q_.Write(incoming_message_);
 1199              		.loc 7 206 45 view .LVU325
 1200 021c 2071     		strb	r0, [r4, #4]
 1201              	.LVL79:
 206:../../libdaisy/src/hid/midi.h ****                                     event_q_.Write(incoming_message_);
 1202              		.loc 7 206 45 view .LVU326
 1203 021e 9022     		movs	r2, #144
 1204 0220 04F10801 		add	r1, r4, #8
 1205              	.LVL80:
 206:../../libdaisy/src/hid/midi.h ****                                     event_q_.Write(incoming_message_);
 1206              		.loc 7 206 45 view .LVU327
 1207 0224 3046     		mov	r0, r6
ARM GAS  /var/folders/0z/b9p8b05s1kb5msq549c5__rh0000gn/T//cciRiJ2K.s 			page 46


 1208 0226 FFF7FEFF 		bl	memcpy
 1209              	.LVL81:
 1210              	.LBB298:
 1211              	.LBI298:
  44:../../libdaisy/src/util/ringbuffer.h ****     {
 1212              		.loc 11 44 17 is_stmt 1 view .LVU328
 1213              	.L54:
 1214              	.LBB299:
  46:../../libdaisy/src/util/ringbuffer.h ****             ;
 1215              		.loc 11 46 24 view .LVU329
 1216              	.LBB300:
 1217              	.LBI300:
  30:../../libdaisy/src/util/ringbuffer.h ****     {
 1218              		.loc 11 30 19 view .LVU330
 1219              	.LBB301:
  32:../../libdaisy/src/util/ringbuffer.h ****     }
 1220              		.loc 11 32 17 is_stmt 0 view .LVU331
 1221 022a D5F89830 		ldr	r3, [r5, #152]
  32:../../libdaisy/src/util/ringbuffer.h ****     }
 1222              		.loc 11 32 29 view .LVU332
 1223 022e D5F89C20 		ldr	r2, [r5, #156]
 1224              	.LVL82:
  32:../../libdaisy/src/util/ringbuffer.h ****     }
 1225              		.loc 11 32 40 view .LVU333
 1226 0232 013B     		subs	r3, r3, #1
 1227 0234 9B1A     		subs	r3, r3, r2
  32:../../libdaisy/src/util/ringbuffer.h ****     }
 1228              		.loc 11 32 47 view .LVU334
 1229 0236 DBB2     		uxtb	r3, r3
 1230              	.LBE301:
 1231              	.LBE300:
  46:../../libdaisy/src/util/ringbuffer.h ****             ;
 1232              		.loc 11 46 24 view .LVU335
 1233 0238 002B     		cmp	r3, #0
 1234 023a F6D0     		beq	.L54
 1235              	.LVL83:
 1236              	.L90:
  46:../../libdaisy/src/util/ringbuffer.h ****             ;
 1237              		.loc 11 46 24 view .LVU336
 1238 023c 9022     		movs	r2, #144
 1239 023e 3146     		mov	r1, r6
 1240 0240 0DEB0200 		add	r0, sp, r2
 1241 0244 FFF7FEFF 		bl	memcpy
 1242              	.LVL84:
 1243              	.LBB302:
 1244              	.LBI302:
  54:../../libdaisy/src/util/ringbuffer.h ****     {
 1245              		.loc 11 54 17 is_stmt 1 view .LVU337
 1246              	.LBB303:
  56:../../libdaisy/src/util/ringbuffer.h ****         buffer_[w] = v;
 1247              		.loc 11 56 16 is_stmt 0 view .LVU338
 1248 0248 D5F89C60 		ldr	r6, [r5, #156]
 1249              	.LVL85:
  57:../../libdaisy/src/util/ringbuffer.h ****         write_ptr_ = (w + 1) % size;
 1250              		.loc 11 57 9 view .LVU339
 1251 024c 24A9     		add	r1, sp, #144
 1252 024e 9022     		movs	r2, #144
ARM GAS  /var/folders/0z/b9p8b05s1kb5msq549c5__rh0000gn/T//cciRiJ2K.s 			page 47


 1253 0250 06EBC600 		add	r0, r6, r6, lsl #3
 1254 0254 04EB0010 		add	r0, r4, r0, lsl #4
 1255 0258 9830     		adds	r0, r0, #152
 1256 025a FFF7FEFF 		bl	memcpy
 1257              	.LVL86:
 1258              		.loc 11 58 25 view .LVU340
 1259 025e 731C     		adds	r3, r6, #1
 1260              		.loc 11 58 30 view .LVU341
 1261 0260 DBB2     		uxtb	r3, r3
 1262              		.loc 11 58 20 view .LVU342
 1263 0262 C5F89C30 		str	r3, [r5, #156]
 1264              	.LVL87:
 1265              		.loc 11 58 20 view .LVU343
 1266              	.LBE303:
 1267              	.LBE302:
 1268              	.LBE299:
 1269              	.LBE298:
 1270 0266 DFE6     		b	.L41
 1271              	.LVL88:
 1272              	.L93:
 181:../../libdaisy/src/hid/midi.h ****                                 running_status_        = SystemRealTime;
 1273              		.loc 7 181 56 view .LVU344
 1274 0268 0822     		movs	r2, #8
 1275 026a 6E46     		mov	r6, sp
 1276 026c 2272     		strb	r2, [r4, #8]
 1277 026e 3046     		mov	r0, r6
 182:../../libdaisy/src/hid/midi.h ****                                 incoming_message_.srt_type
 1278              		.loc 7 182 56 view .LVU345
 1279 0270 85F8A420 		strb	r2, [r5, #164]
 185:../../libdaisy/src/hid/midi.h **** 
 1280              		.loc 7 185 46 view .LVU346
 1281 0274 95F8BA20 		ldrb	r2, [r5, #186]	@ zero_extendqisi2
 188:../../libdaisy/src/hid/midi.h ****                                 event_q_.Write(incoming_message_);
 1282              		.loc 7 188 41 view .LVU347
 1283 0278 2371     		strb	r3, [r4, #4]
 1284              	.LVL89:
 185:../../libdaisy/src/hid/midi.h **** 
 1285              		.loc 7 185 46 view .LVU348
 1286 027a 1140     		ands	r1, r1, r2
 1287              	.LVL90:
 185:../../libdaisy/src/hid/midi.h **** 
 1288              		.loc 7 185 46 view .LVU349
 1289 027c 9022     		movs	r2, #144
 184:../../libdaisy/src/hid/midi.h ****                                         byte & kSystemRealTimeMask);
 1290              		.loc 7 184 37 view .LVU350
 1291 027e 84F89410 		strb	r1, [r4, #148]
 1292 0282 04F10801 		add	r1, r4, #8
 1293 0286 FFF7FEFF 		bl	memcpy
 1294              	.LVL91:
 1295              	.LBB304:
 1296              	.LBI304:
  44:../../libdaisy/src/util/ringbuffer.h ****     {
 1297              		.loc 11 44 17 is_stmt 1 view .LVU351
 1298              	.L52:
 1299              	.LBB305:
  46:../../libdaisy/src/util/ringbuffer.h ****             ;
 1300              		.loc 11 46 24 view .LVU352
ARM GAS  /var/folders/0z/b9p8b05s1kb5msq549c5__rh0000gn/T//cciRiJ2K.s 			page 48


 1301              	.LBB306:
 1302              	.LBI306:
  30:../../libdaisy/src/util/ringbuffer.h ****     {
 1303              		.loc 11 30 19 view .LVU353
 1304              	.LBB307:
  32:../../libdaisy/src/util/ringbuffer.h ****     }
 1305              		.loc 11 32 17 is_stmt 0 view .LVU354
 1306 028a D5F89830 		ldr	r3, [r5, #152]
  32:../../libdaisy/src/util/ringbuffer.h ****     }
 1307              		.loc 11 32 29 view .LVU355
 1308 028e D5F89C20 		ldr	r2, [r5, #156]
 1309              	.LVL92:
  32:../../libdaisy/src/util/ringbuffer.h ****     }
 1310              		.loc 11 32 40 view .LVU356
 1311 0292 013B     		subs	r3, r3, #1
 1312 0294 9B1A     		subs	r3, r3, r2
  32:../../libdaisy/src/util/ringbuffer.h ****     }
 1313              		.loc 11 32 47 view .LVU357
 1314 0296 DBB2     		uxtb	r3, r3
 1315              	.LBE307:
 1316              	.LBE306:
  46:../../libdaisy/src/util/ringbuffer.h ****             ;
 1317              		.loc 11 46 24 view .LVU358
 1318 0298 002B     		cmp	r3, #0
 1319 029a F6D0     		beq	.L52
 1320 029c CEE7     		b	.L90
 1321              	.LBE305:
 1322              	.LBE304:
 1323              		.cfi_endproc
 1324              	.LFE4684:
 1326 029e 00BF     		.section	.text.startup.main,"ax",%progbits
 1327              		.align	1
 1328              		.p2align 2,,3
 1329              		.global	main
 1330              		.syntax unified
 1331              		.thumb
 1332              		.thumb_func
 1333              		.fpu fpv5-d16
 1335              	main:
 1336              	.LFB4254:
 101:DrumModule.cpp **** 
 102:DrumModule.cpp **** 
 103:DrumModule.cpp **** int main(void)
 104:DrumModule.cpp **** {
 1337              		.loc 8 104 1 is_stmt 1 view -0
 1338              		.cfi_startproc
 1339              		@ args = 0, pretend = 0, frame = 0
 1340              		@ frame_needed = 0, uses_anonymous_args = 0
 105:DrumModule.cpp ****     // Configure and Initialize the Daisy Seed
 106:DrumModule.cpp ****     // These are separate to allow reconfiguration of any of the internal
 107:DrumModule.cpp ****     // components before initialization.
 108:DrumModule.cpp ****     hardware.Configure();
 1341              		.loc 8 108 5 view .LVU360
 104:DrumModule.cpp ****     // Configure and Initialize the Daisy Seed
 1342              		.loc 8 104 1 is_stmt 0 view .LVU361
 1343 0000 2DE9F047 		push	{r4, r5, r6, r7, r8, r9, r10, lr}
 1344              		.cfi_def_cfa_offset 32
ARM GAS  /var/folders/0z/b9p8b05s1kb5msq549c5__rh0000gn/T//cciRiJ2K.s 			page 49


 1345              		.cfi_offset 4, -32
 1346              		.cfi_offset 5, -28
 1347              		.cfi_offset 6, -24
 1348              		.cfi_offset 7, -20
 1349              		.cfi_offset 8, -16
 1350              		.cfi_offset 9, -12
 1351              		.cfi_offset 10, -8
 1352              		.cfi_offset 14, -4
 1353              		.loc 8 108 23 view .LVU362
 1354 0004 5948     		ldr	r0, .L115
 1355              	.LBB359:
 1356              	.LBB360:
  44:../../DaisySP/Source/Synthesis/oscillator.h ****         sr_recip_  = 1.0f / sample_rate;
 1357              		.loc 6 44 20 view .LVU363
 1358 0006 5A4C     		ldr	r4, .L115+4
 1359 0008 DFF88C91 		ldr	r9, .L115+44
 1360              	.LBE360:
 1361              	.LBE359:
 1362              	.LBB364:
 1363              	.LBB365:
  16:DrumModule.cpp ****     }
 1364              		.loc 8 16 26 view .LVU364
 1365 000c DFF88C81 		ldr	r8, .L115+48
 1366              	.LBE365:
 1367              	.LBE364:
 1368              	.LBB368:
 1369              	.LBB369:
 1370 0010 DFF88CA1 		ldr	r10, .L115+52
 1371 0014 574E     		ldr	r6, .L115+8
 1372 0016 584D     		ldr	r5, .L115+12
 1373              	.LBE369:
 1374              	.LBE368:
 104:DrumModule.cpp ****     // Configure and Initialize the Daisy Seed
 1375              		.loc 8 104 1 view .LVU365
 1376 0018 2DED028B 		vpush.64	{d8}
 1377              		.cfi_def_cfa_offset 40
 1378              		.cfi_offset 80, -40
 1379              		.cfi_offset 81, -36
 1380              		.loc 8 108 23 view .LVU366
 1381 001c FFF7FEFF 		bl	_ZN5daisy9DaisySeed9ConfigureEv
 1382              	.LVL93:
 109:DrumModule.cpp ****     hardware.Init();
 1383              		.loc 8 109 5 is_stmt 1 view .LVU367
 1384              		.loc 8 109 18 is_stmt 0 view .LVU368
 1385 0020 0021     		movs	r1, #0
 1386 0022 5248     		ldr	r0, .L115
 1387              	.LBB372:
 1388              	.LBB361:
  45:../../DaisySP/Source/Synthesis/oscillator.h ****         freq_      = 100.0f;
 1389              		.loc 6 45 27 view .LVU369
 1390 0024 F7EE008A 		vmov.f32	s17, #1.0e+0
 1391              	.LBE361:
 1392              	.LBE372:
 1393              		.loc 8 109 18 view .LVU370
 1394 0028 FFF7FEFF 		bl	_ZN5daisy9DaisySeed4InitEb
 1395              	.LVL94:
 110:DrumModule.cpp **** 
ARM GAS  /var/folders/0z/b9p8b05s1kb5msq549c5__rh0000gn/T//cciRiJ2K.s 			page 50


 111:DrumModule.cpp ****     InitMidi();
 1396              		.loc 8 111 5 is_stmt 1 view .LVU371
 1397              		.loc 8 111 13 is_stmt 0 view .LVU372
 1398 002c FFF7FEFF 		bl	_Z8InitMidiv
 1399              	.LVL95:
 112:DrumModule.cpp **** 
 113:DrumModule.cpp ****     //How many samples we'll output per second
 114:DrumModule.cpp ****     float samplerate = hardware.AudioSampleRate();
 1400              		.loc 8 114 5 is_stmt 1 view .LVU373
 1401              		.loc 8 114 48 is_stmt 0 view .LVU374
 1402 0030 4E48     		ldr	r0, .L115
 1403 0032 FFF7FEFF 		bl	_ZN5daisy9DaisySeed15AudioSampleRateEv
 1404              	.LVL96:
 1405 0036 B0EE408A 		vmov.f32	s16, s0
 1406              	.LVL97:
 115:DrumModule.cpp **** 
 116:DrumModule.cpp ****     //Set up oscillator
 117:DrumModule.cpp ****     osc.Init(samplerate);
 1407              		.loc 8 117 5 is_stmt 1 view .LVU375
 1408              	.LBB373:
 1409              	.LBI359:
  42:../../DaisySP/Source/Synthesis/oscillator.h ****     {
 1410              		.loc 6 42 10 view .LVU376
 1411              	.LBB362:
  44:../../DaisySP/Source/Synthesis/oscillator.h ****         sr_recip_  = 1.0f / sample_rate;
 1412              		.loc 6 44 9 view .LVU377
  46:../../DaisySP/Source/Synthesis/oscillator.h ****         amp_       = 0.5f;
 1413              		.loc 6 46 20 is_stmt 0 view .LVU378
 1414 003a DFED507A 		vldr.32	s15, .L115+16
  47:../../DaisySP/Source/Synthesis/oscillator.h ****         phase_     = 0.0f;
 1415              		.loc 6 47 20 view .LVU379
 1416 003e 4FF07C52 		mov	r2, #1056964608
  48:../../DaisySP/Source/Synthesis/oscillator.h ****         phase_inc_ = CalcPhaseInc(freq_);
 1417              		.loc 6 48 20 view .LVU380
 1418 0042 0023     		movs	r3, #0
  49:../../DaisySP/Source/Synthesis/oscillator.h ****         waveform_  = WAVE_SIN;
 1419              		.loc 6 49 34 view .LVU381
 1420 0044 2046     		mov	r0, r4
  45:../../DaisySP/Source/Synthesis/oscillator.h ****         freq_      = 100.0f;
 1421              		.loc 6 45 27 view .LVU382
 1422 0046 88EE887A 		vdiv.f32	s14, s17, s16
  46:../../DaisySP/Source/Synthesis/oscillator.h ****         amp_       = 0.5f;
 1423              		.loc 6 46 20 view .LVU383
 1424 004a C4ED027A 		vstr.32	s15, [r4, #8]
  47:../../DaisySP/Source/Synthesis/oscillator.h ****         phase_     = 0.0f;
 1425              		.loc 6 47 20 view .LVU384
 1426 004e 6260     		str	r2, [r4, #4]	@ float
  48:../../DaisySP/Source/Synthesis/oscillator.h ****         phase_inc_ = CalcPhaseInc(freq_);
 1427              		.loc 6 48 20 view .LVU385
 1428 0050 6361     		str	r3, [r4, #20]	@ float
  44:../../DaisySP/Source/Synthesis/oscillator.h ****         sr_recip_  = 1.0f / sample_rate;
 1429              		.loc 6 44 20 view .LVU386
 1430 0052 84ED038A 		vstr.32	s16, [r4, #12]
  45:../../DaisySP/Source/Synthesis/oscillator.h ****         freq_      = 100.0f;
 1431              		.loc 6 45 9 is_stmt 1 view .LVU387
  49:../../DaisySP/Source/Synthesis/oscillator.h ****         waveform_  = WAVE_SIN;
 1432              		.loc 6 49 34 is_stmt 0 view .LVU388
ARM GAS  /var/folders/0z/b9p8b05s1kb5msq549c5__rh0000gn/T//cciRiJ2K.s 			page 51


 1433 0056 B0EE670A 		vmov.f32	s0, s15
 1434              	.LVL98:
  45:../../DaisySP/Source/Synthesis/oscillator.h ****         freq_      = 100.0f;
 1435              		.loc 6 45 20 view .LVU389
 1436 005a 84ED047A 		vstr.32	s14, [r4, #16]
  46:../../DaisySP/Source/Synthesis/oscillator.h ****         amp_       = 0.5f;
 1437              		.loc 6 46 9 is_stmt 1 view .LVU390
  47:../../DaisySP/Source/Synthesis/oscillator.h ****         phase_     = 0.0f;
 1438              		.loc 6 47 9 view .LVU391
  48:../../DaisySP/Source/Synthesis/oscillator.h ****         phase_inc_ = CalcPhaseInc(freq_);
 1439              		.loc 6 48 9 view .LVU392
  49:../../DaisySP/Source/Synthesis/oscillator.h ****         waveform_  = WAVE_SIN;
 1440              		.loc 6 49 9 view .LVU393
  49:../../DaisySP/Source/Synthesis/oscillator.h ****         waveform_  = WAVE_SIN;
 1441              		.loc 6 49 34 is_stmt 0 view .LVU394
 1442 005e FFF7FEFF 		bl	_ZN7daisysp10Oscillator12CalcPhaseIncEf
 1443              	.LVL99:
  52:../../DaisySP/Source/Synthesis/oscillator.h ****     }
 1444              		.loc 6 52 20 view .LVU395
 1445 0062 40F20113 		movw	r3, #257
  49:../../DaisySP/Source/Synthesis/oscillator.h ****         waveform_  = WAVE_SIN;
 1446              		.loc 6 49 34 view .LVU396
 1447 0066 F0EE407A 		vmov.f32	s15, s0
  50:../../DaisySP/Source/Synthesis/oscillator.h ****         eoc_       = true;
 1448              		.loc 6 50 20 view .LVU397
 1449 006a 0022     		movs	r2, #0
 1450              	.LBE362:
 1451              	.LBE373:
 1452              	.LBB374:
 1453              	.LBB375:
  60:../../DaisySP/Source/Synthesis/oscillator.h ****         phase_inc_ = CalcPhaseInc(f);
 1454              		.loc 6 60 20 view .LVU398
 1455 006c 9FED440A 		vldr.32	s0, .L115+20
 1456              		.loc 6 61 34 view .LVU399
 1457 0070 2046     		mov	r0, r4
 1458              	.LBE375:
 1459              	.LBE374:
 1460              	.LBB379:
 1461              	.LBB363:
  52:../../DaisySP/Source/Synthesis/oscillator.h ****     }
 1462              		.loc 6 52 20 view .LVU400
 1463 0072 A384     		strh	r3, [r4, #36]	@ movhi
  49:../../DaisySP/Source/Synthesis/oscillator.h ****         waveform_  = WAVE_SIN;
 1464              		.loc 6 49 20 view .LVU401
 1465 0074 C4ED067A 		vstr.32	s15, [r4, #24]
  50:../../DaisySP/Source/Synthesis/oscillator.h ****         eoc_       = true;
 1466              		.loc 6 50 9 is_stmt 1 view .LVU402
  50:../../DaisySP/Source/Synthesis/oscillator.h ****         eoc_       = true;
 1467              		.loc 6 50 20 is_stmt 0 view .LVU403
 1468 0078 2270     		strb	r2, [r4]
  51:../../DaisySP/Source/Synthesis/oscillator.h ****         eor_       = true;
 1469              		.loc 6 51 9 is_stmt 1 view .LVU404
  52:../../DaisySP/Source/Synthesis/oscillator.h ****     }
 1470              		.loc 6 52 9 view .LVU405
 1471              	.LVL100:
  52:../../DaisySP/Source/Synthesis/oscillator.h ****     }
 1472              		.loc 6 52 9 is_stmt 0 view .LVU406
ARM GAS  /var/folders/0z/b9p8b05s1kb5msq549c5__rh0000gn/T//cciRiJ2K.s 			page 52


 1473              	.LBE363:
 1474              	.LBE379:
 118:DrumModule.cpp ****     osc.SetWaveform(osc.WAVE_SIN);
 1475              		.loc 8 118 5 is_stmt 1 view .LVU407
  62:../../DaisySP/Source/Synthesis/oscillator.h ****     }
  63:../../DaisySP/Source/Synthesis/oscillator.h **** 
  64:../../DaisySP/Source/Synthesis/oscillator.h **** 
  65:../../DaisySP/Source/Synthesis/oscillator.h ****     /** Sets the amplitude of the waveform.
  66:../../DaisySP/Source/Synthesis/oscillator.h ****     */
  67:../../DaisySP/Source/Synthesis/oscillator.h ****     inline void SetAmp(const float a) { amp_ = a; }
  68:../../DaisySP/Source/Synthesis/oscillator.h ****     /** Sets the waveform to be synthesized by the Process() function.
  69:../../DaisySP/Source/Synthesis/oscillator.h ****     */
  70:../../DaisySP/Source/Synthesis/oscillator.h ****     inline void SetWaveform(const uint8_t wf)
  71:../../DaisySP/Source/Synthesis/oscillator.h ****     {
  72:../../DaisySP/Source/Synthesis/oscillator.h ****         waveform_ = wf < WAVE_LAST ? wf : WAVE_SIN;
 1476              		.loc 6 72 9 view .LVU408
 119:DrumModule.cpp ****     osc.SetAmp(1.f);
 1477              		.loc 8 119 5 view .LVU409
 1478              	.LBB380:
 1479              	.LBI380:
  67:../../DaisySP/Source/Synthesis/oscillator.h ****     /** Sets the waveform to be synthesized by the Process() function.
 1480              		.loc 6 67 17 view .LVU410
 1481              	.LBB381:
  67:../../DaisySP/Source/Synthesis/oscillator.h ****     /** Sets the waveform to be synthesized by the Process() function.
 1482              		.loc 6 67 41 view .LVU411
  67:../../DaisySP/Source/Synthesis/oscillator.h ****     /** Sets the waveform to be synthesized by the Process() function.
 1483              		.loc 6 67 41 is_stmt 0 view .LVU412
 1484              	.LBE381:
 1485              	.LBE380:
 120:DrumModule.cpp ****     osc.SetFreq(440);
 1486              		.loc 8 120 5 is_stmt 1 view .LVU413
 1487              	.LBB383:
 1488              	.LBI374:
  58:../../DaisySP/Source/Synthesis/oscillator.h ****     {
 1489              		.loc 6 58 17 view .LVU414
 1490              	.LBB376:
  60:../../DaisySP/Source/Synthesis/oscillator.h ****         phase_inc_ = CalcPhaseInc(f);
 1491              		.loc 6 60 9 view .LVU415
  61:../../DaisySP/Source/Synthesis/oscillator.h ****     }
 1492              		.loc 6 61 9 view .LVU416
 1493              	.LBE376:
 1494              	.LBE383:
 1495              	.LBB384:
 1496              	.LBB382:
  67:../../DaisySP/Source/Synthesis/oscillator.h ****     /** Sets the waveform to be synthesized by the Process() function.
 1497              		.loc 6 67 46 is_stmt 0 view .LVU417
 1498 007a C4ED018A 		vstr.32	s17, [r4, #4]
 1499              	.LBE382:
 1500              	.LBE384:
 1501              	.LBB385:
 1502              	.LBB377:
  60:../../DaisySP/Source/Synthesis/oscillator.h ****         phase_inc_ = CalcPhaseInc(f);
 1503              		.loc 6 60 20 view .LVU418
 1504 007e 84ED020A 		vstr.32	s0, [r4, #8]
  61:../../DaisySP/Source/Synthesis/oscillator.h ****     }
 1505              		.loc 6 61 34 view .LVU419
 1506 0082 FFF7FEFF 		bl	_ZN7daisysp10Oscillator12CalcPhaseIncEf
ARM GAS  /var/folders/0z/b9p8b05s1kb5msq549c5__rh0000gn/T//cciRiJ2K.s 			page 53


 1507              	.LVL101:
 1508              	.LBE377:
 1509              	.LBE385:
 1510              	.LBB386:
 1511              	.LBB387:
  21:DrumModule.cpp ****     }
 1512              		.loc 8 21 33 view .LVU420
 1513 0086 9FED3F7A 		vldr.32	s14, .L115+24
 1514              	.LBE387:
 1515              	.LBE386:
 1516              	.LBB392:
 1517              	.LBB393:
 1518 008a DFED3F7A 		vldr.32	s15, .L115+28
 1519              	.LBE393:
 1520              	.LBE392:
 1521              	.LBB397:
 1522              	.LBB388:
 1523 008e 28EE077A 		vmul.f32	s14, s16, s14
 1524              	.LBE388:
 1525              	.LBE397:
 1526              	.LBB398:
 1527              	.LBB378:
  61:../../DaisySP/Source/Synthesis/oscillator.h ****     }
 1528              		.loc 6 61 20 view .LVU421
 1529 0092 84ED060A 		vstr.32	s0, [r4, #24]
 1530              	.LVL102:
  61:../../DaisySP/Source/Synthesis/oscillator.h ****     }
 1531              		.loc 6 61 20 view .LVU422
 1532              	.LBE378:
 1533              	.LBE398:
 121:DrumModule.cpp **** 
 122:DrumModule.cpp ****     //Start the adc
 123:DrumModule.cpp ****     //hardware.adc.Start();
 124:DrumModule.cpp ****     pitchEnv.Init(samplerate);
 1534              		.loc 8 124 5 is_stmt 1 view .LVU423
 1535              	.LBB399:
 1536              	.LBI364:
  15:DrumModule.cpp ****         this->sampleRate = sampleRate;
 1537              		.loc 8 15 10 view .LVU424
 1538              	.LBB366:
  16:DrumModule.cpp ****     }
 1539              		.loc 8 16 9 view .LVU425
 1540              	.LBE366:
 1541              	.LBE399:
 1542              	.LBB400:
 1543              	.LBB394:
  21:DrumModule.cpp ****     }
 1544              		.loc 8 21 33 is_stmt 0 view .LVU426
 1545 0096 68EE277A 		vmul.f32	s15, s16, s15
 1546 009a A9F51044 		sub	r4, r9, #36864
 1547              	.LBE394:
 1548              	.LBE400:
 125:DrumModule.cpp ****     pitchEnv.SetTime(0.02);
 126:DrumModule.cpp **** 
 127:DrumModule.cpp ****     ampEnv.Init(samplerate);
 128:DrumModule.cpp ****     ampEnv.SetTime(0.2);
 129:DrumModule.cpp **** 
ARM GAS  /var/folders/0z/b9p8b05s1kb5msq549c5__rh0000gn/T//cciRiJ2K.s 			page 54


 130:DrumModule.cpp ****     //Start calling the audio callback
 131:DrumModule.cpp ****     hardware.StartAudio(AudioCallback);
 1549              		.loc 8 131 24 view .LVU427
 1550 009e 3B49     		ldr	r1, .L115+32
 1551              	.LBB401:
 1552              	.LBB389:
  21:DrumModule.cpp ****     }
 1553              		.loc 8 21 25 view .LVU428
 1554 00a0 C8EE876A 		vdiv.f32	s13, s17, s14
 1555              	.LBE389:
 1556              	.LBE401:
 1557              		.loc 8 131 24 view .LVU429
 1558 00a4 3148     		ldr	r0, .L115
 1559              	.LBB402:
 1560              	.LBB367:
  16:DrumModule.cpp ****     }
 1561              		.loc 8 16 26 view .LVU430
 1562 00a6 88ED008A 		vstr.32	s16, [r8]
 1563              	.LVL103:
  16:DrumModule.cpp ****     }
 1564              		.loc 8 16 26 view .LVU431
 1565              	.LBE367:
 1566              	.LBE402:
 125:DrumModule.cpp ****     pitchEnv.SetTime(0.02);
 1567              		.loc 8 125 5 is_stmt 1 view .LVU432
 1568              	.LBB403:
 1569              	.LBI386:
  19:DrumModule.cpp ****         time = fmaxf(time, 0.000001f);
 1570              		.loc 8 19 10 view .LVU433
 1571              	.LBB390:
  20:DrumModule.cpp ****         increment = 1.f / (time * sampleRate);
 1572              		.loc 8 20 9 view .LVU434
  21:DrumModule.cpp ****     }
 1573              		.loc 8 21 9 view .LVU435
 1574              	.LBE390:
 1575              	.LBE403:
 1576              	.LBB404:
 1577              	.LBB370:
  16:DrumModule.cpp ****     }
 1578              		.loc 8 16 26 is_stmt 0 view .LVU436
 1579 00aa 8AED008A 		vstr.32	s16, [r10]
 1580              	.LBE370:
 1581              	.LBE404:
 1582              	.LBB405:
 1583              	.LBB395:
  21:DrumModule.cpp ****     }
 1584              		.loc 8 21 25 view .LVU437
 1585 00ae 88EEA77A 		vdiv.f32	s14, s17, s15
 1586              	.LBE395:
 1587              	.LBE405:
 1588              	.LBB406:
 1589              	.LBB391:
  21:DrumModule.cpp ****     }
 1590              		.loc 8 21 19 view .LVU438
 1591 00b2 C8ED036A 		vstr.32	s13, [r8, #12]
 1592              	.LVL104:
  21:DrumModule.cpp ****     }
ARM GAS  /var/folders/0z/b9p8b05s1kb5msq549c5__rh0000gn/T//cciRiJ2K.s 			page 55


 1593              		.loc 8 21 19 view .LVU439
 1594              	.LBE391:
 1595              	.LBE406:
 127:DrumModule.cpp ****     ampEnv.SetTime(0.2);
 1596              		.loc 8 127 5 is_stmt 1 view .LVU440
 1597              	.LBB407:
 1598              	.LBI368:
  15:DrumModule.cpp ****         this->sampleRate = sampleRate;
 1599              		.loc 8 15 10 view .LVU441
 1600              	.LBB371:
  16:DrumModule.cpp ****     }
 1601              		.loc 8 16 9 view .LVU442
  16:DrumModule.cpp ****     }
 1602              		.loc 8 16 9 is_stmt 0 view .LVU443
 1603              	.LBE371:
 1604              	.LBE407:
 128:DrumModule.cpp **** 
 1605              		.loc 8 128 5 is_stmt 1 view .LVU444
 1606              	.LBB408:
 1607              	.LBI392:
  19:DrumModule.cpp ****         time = fmaxf(time, 0.000001f);
 1608              		.loc 8 19 10 view .LVU445
 1609              	.LBB396:
  20:DrumModule.cpp ****         increment = 1.f / (time * sampleRate);
 1610              		.loc 8 20 9 view .LVU446
  21:DrumModule.cpp ****     }
 1611              		.loc 8 21 9 view .LVU447
  21:DrumModule.cpp ****     }
 1612              		.loc 8 21 19 is_stmt 0 view .LVU448
 1613 00b6 8AED037A 		vstr.32	s14, [r10, #12]
 1614              	.LVL105:
  21:DrumModule.cpp ****     }
 1615              		.loc 8 21 19 view .LVU449
 1616              	.LBE396:
 1617              	.LBE408:
 1618              		.loc 8 131 5 is_stmt 1 view .LVU450
 1619              		.loc 8 131 24 is_stmt 0 view .LVU451
 1620 00ba FFF7FEFF 		bl	_ZN5daisy9DaisySeed10StartAudioEPFvPKfPfjE
 1621              	.LVL106:
 1622              	.L100:
 132:DrumModule.cpp **** 
 133:DrumModule.cpp ****     // Loop forever
 134:DrumModule.cpp ****     
 135:DrumModule.cpp ****     for(;;)
 1623              		.loc 8 135 5 is_stmt 1 view .LVU452
 136:DrumModule.cpp ****     {
 137:DrumModule.cpp ****         midi.Listen();
 1624              		.loc 8 137 9 view .LVU453
 1625              	.LBB409:
 1626              	.LBI409:
 109:../../libdaisy/src/hid/midi.h ****     {
 1627              		.loc 7 109 10 view .LVU454
 1628              	.LBB410:
 112:../../libdaisy/src/hid/midi.h ****         while(transport_.Readable())
 1629              		.loc 7 112 29 is_stmt 0 view .LVU455
 1630 00be FFF7FEFF 		bl	_ZN5daisy6System6GetNowEv
 1631              	.LVL107:
ARM GAS  /var/folders/0z/b9p8b05s1kb5msq549c5__rh0000gn/T//cciRiJ2K.s 			page 56


 1632 00c2 0746     		mov	r7, r0
 1633              	.LVL108:
 112:../../libdaisy/src/hid/midi.h ****         while(transport_.Readable())
 1634              		.loc 7 112 29 view .LVU456
 1635 00c4 07E0     		b	.L97
 1636              	.LVL109:
 1637              	.L112:
 115:../../libdaisy/src/hid/midi.h ****             Parse(transport_.Rx());
 1638              		.loc 7 115 24 view .LVU457
 1639 00c6 C9F8A070 		str	r7, [r9, #160]
 1640              	.LVL110:
 1641              	.LBB411:
 1642              	.LBI411:
  62:../../libdaisy/src/hid/midi.h ****     inline bool    RxActive() { return uart_.RxActive(); }
 1643              		.loc 7 62 20 is_stmt 1 view .LVU458
 1644              	.LBB412:
  62:../../libdaisy/src/hid/midi.h ****     inline bool    RxActive() { return uart_.RxActive(); }
 1645              		.loc 7 62 27 view .LVU459
  62:../../libdaisy/src/hid/midi.h ****     inline bool    RxActive() { return uart_.RxActive(); }
 1646              		.loc 7 62 45 is_stmt 0 view .LVU460
 1647 00ca FFF7FEFF 		bl	_ZN5daisy11UartHandler5PopRxEv
 1648              	.LVL111:
  62:../../libdaisy/src/hid/midi.h ****     inline bool    RxActive() { return uart_.RxActive(); }
 1649              		.loc 7 62 45 view .LVU461
 1650 00ce 0146     		mov	r1, r0
 1651              	.LBE412:
 1652              	.LBE411:
 116:../../libdaisy/src/hid/midi.h ****         }
 1653              		.loc 7 116 18 view .LVU462
 1654 00d0 2F48     		ldr	r0, .L115+36
 1655 00d2 FFF7FEFF 		bl	_ZN5daisy11MidiHandlerINS_17MidiUartTransportEE5ParseEh
 1656              	.LVL112:
 1657              	.L97:
 113:../../libdaisy/src/hid/midi.h ****         {
 1658              		.loc 7 113 34 is_stmt 1 view .LVU463
 1659              	.LBB414:
 1660              	.LBI414:
  61:../../libdaisy/src/hid/midi.h ****     inline uint8_t Rx() { return uart_.PopRx(); }
 1661              		.loc 7 61 20 view .LVU464
 1662              	.LBB415:
  61:../../libdaisy/src/hid/midi.h ****     inline uint8_t Rx() { return uart_.PopRx(); }
 1663              		.loc 7 61 33 view .LVU465
  61:../../libdaisy/src/hid/midi.h ****     inline uint8_t Rx() { return uart_.PopRx(); }
 1664              		.loc 7 61 54 is_stmt 0 view .LVU466
 1665 00d6 2F48     		ldr	r0, .L115+40
 1666              	.LVL113:
  61:../../libdaisy/src/hid/midi.h ****     inline uint8_t Rx() { return uart_.PopRx(); }
 1667              		.loc 7 61 54 view .LVU467
 1668 00d8 FFF7FEFF 		bl	_ZN5daisy11UartHandler8ReadableEv
 1669              	.LVL114:
  61:../../libdaisy/src/hid/midi.h ****     inline uint8_t Rx() { return uart_.PopRx(); }
 1670              		.loc 7 61 54 view .LVU468
 1671 00dc 0346     		mov	r3, r0
 1672              	.LBE415:
 1673              	.LBE414:
 1674              	.LBB416:
 1675              	.LBB413:
ARM GAS  /var/folders/0z/b9p8b05s1kb5msq549c5__rh0000gn/T//cciRiJ2K.s 			page 57


  62:../../libdaisy/src/hid/midi.h ****     inline bool    RxActive() { return uart_.RxActive(); }
 1676              		.loc 7 62 45 view .LVU469
 1677 00de 2D48     		ldr	r0, .L115+40
 1678              	.LBE413:
 1679              	.LBE416:
 113:../../libdaisy/src/hid/midi.h ****         {
 1680              		.loc 7 113 34 view .LVU470
 1681 00e0 002B     		cmp	r3, #0
 1682 00e2 F0D1     		bne	.L112
 1683              	.LVL115:
 1684              	.LBB417:
 1685              	.LBI417:
  63:../../libdaisy/src/hid/midi.h ****     inline void    FlushRx() { uart_.FlushRx(); }
 1686              		.loc 7 63 20 is_stmt 1 view .LVU471
 1687              	.LBB418:
  63:../../libdaisy/src/hid/midi.h ****     inline void    FlushRx() { uart_.FlushRx(); }
 1688              		.loc 7 63 33 view .LVU472
  63:../../libdaisy/src/hid/midi.h ****     inline void    FlushRx() { uart_.FlushRx(); }
 1689              		.loc 7 63 54 is_stmt 0 view .LVU473
 1690 00e4 2B48     		ldr	r0, .L115+40
  63:../../libdaisy/src/hid/midi.h ****     inline void    FlushRx() { uart_.FlushRx(); }
 1691              		.loc 7 63 54 view .LVU474
 1692 00e6 FFF7FEFF 		bl	_ZN5daisy11UartHandler8RxActiveEv
 1693              	.LVL116:
  63:../../libdaisy/src/hid/midi.h ****     inline void    FlushRx() { uart_.FlushRx(); }
 1694              		.loc 7 63 54 view .LVU475
 1695              	.LBE418:
 1696              	.LBE417:
 122:../../libdaisy/src/hid/midi.h ****         {
 1697              		.loc 7 122 9 view .LVU476
 1698 00ea 0346     		mov	r3, r0
 1699 00ec 0028     		cmp	r0, #0
 1700 00ee 34D0     		beq	.L113
 1701              	.LVL117:
 1702              	.L98:
 122:../../libdaisy/src/hid/midi.h ****         {
 1703              		.loc 7 122 9 view .LVU477
 1704              	.LBE410:
 1705              	.LBE409:
 138:DrumModule.cpp ****         // Handle MIDI Events
 139:DrumModule.cpp ****         while(midi.HasEvents())
 1706              		.loc 8 139 9 is_stmt 1 view .LVU478
 1707              		.loc 8 139 29 view .LVU479
 1708              	.LBB428:
 1709              	.LBI428:
 133:../../libdaisy/src/hid/midi.h **** 
 1710              		.loc 7 133 10 view .LVU480
 1711              	.LBB429:
 1712              	.LBI429:
  36:../../libdaisy/src/util/ringbuffer.h **** 
 1713              		.loc 11 36 19 view .LVU481
 1714              	.LBB430:
  36:../../libdaisy/src/util/ringbuffer.h **** 
 1715              		.loc 11 36 46 is_stmt 0 view .LVU482
 1716 00f0 D9F89C30 		ldr	r3, [r9, #156]
  36:../../libdaisy/src/util/ringbuffer.h **** 
 1717              		.loc 11 36 59 view .LVU483
ARM GAS  /var/folders/0z/b9p8b05s1kb5msq549c5__rh0000gn/T//cciRiJ2K.s 			page 58


 1718 00f4 D9F89820 		ldr	r2, [r9, #152]
 1719              	.LVL118:
  36:../../libdaisy/src/util/ringbuffer.h **** 
 1720              		.loc 11 36 57 view .LVU484
 1721 00f8 9B1A     		subs	r3, r3, r2
  36:../../libdaisy/src/util/ringbuffer.h **** 
 1722              		.loc 11 36 72 view .LVU485
 1723 00fa DBB2     		uxtb	r3, r3
 1724              	.LBE430:
 1725              	.LBE429:
 1726              	.LBE428:
 1727              		.loc 8 139 29 view .LVU486
 1728 00fc 002B     		cmp	r3, #0
 1729 00fe DED0     		beq	.L100
 1730              	.L101:
 1731              	.LBB431:
 1732              	.LBB432:
 1733              	.LBB433:
  59:../../libdaisy/src/util/ringbuffer.h ****     }
  60:../../libdaisy/src/util/ringbuffer.h **** 
  61:../../libdaisy/src/util/ringbuffer.h ****     /** Reads the first available element from the ring buffer
  62:../../libdaisy/src/util/ringbuffer.h ****     \return read value
  63:../../libdaisy/src/util/ringbuffer.h ****      */
  64:../../libdaisy/src/util/ringbuffer.h ****     inline T Read()
  65:../../libdaisy/src/util/ringbuffer.h ****     {
  66:../../libdaisy/src/util/ringbuffer.h ****         while(!readable())
 1734              		.loc 11 66 24 is_stmt 1 view .LVU487
 1735              	.LVL119:
 1736              	.LBB434:
 1737              	.LBI434:
  36:../../libdaisy/src/util/ringbuffer.h **** 
 1738              		.loc 11 36 19 view .LVU488
 1739              	.LBB435:
  36:../../libdaisy/src/util/ringbuffer.h **** 
 1740              		.loc 11 36 46 is_stmt 0 view .LVU489
 1741 0100 D9F89C30 		ldr	r3, [r9, #156]
  36:../../libdaisy/src/util/ringbuffer.h **** 
 1742              		.loc 11 36 59 view .LVU490
 1743 0104 D9F89820 		ldr	r2, [r9, #152]
 1744              	.LVL120:
  36:../../libdaisy/src/util/ringbuffer.h **** 
 1745              		.loc 11 36 57 view .LVU491
 1746 0108 9B1A     		subs	r3, r3, r2
  36:../../libdaisy/src/util/ringbuffer.h **** 
 1747              		.loc 11 36 72 view .LVU492
 1748 010a DBB2     		uxtb	r3, r3
 1749              	.LBE435:
 1750              	.LBE434:
 1751              		.loc 11 66 24 view .LVU493
 1752 010c 002B     		cmp	r3, #0
 1753 010e F7D0     		beq	.L101
 1754              	.LVL121:
 1755              	.LBB436:
 1756              	.LBI436:
  67:../../libdaisy/src/util/ringbuffer.h ****             ;
  68:../../libdaisy/src/util/ringbuffer.h ****         return ImmediateRead();
  69:../../libdaisy/src/util/ringbuffer.h ****     }
ARM GAS  /var/folders/0z/b9p8b05s1kb5msq549c5__rh0000gn/T//cciRiJ2K.s 			page 59


  70:../../libdaisy/src/util/ringbuffer.h **** 
  71:../../libdaisy/src/util/ringbuffer.h ****     /** Reads next element from ring buffer immediately
  72:../../libdaisy/src/util/ringbuffer.h ****     \return read value
  73:../../libdaisy/src/util/ringbuffer.h ****      */
  74:../../libdaisy/src/util/ringbuffer.h ****     inline T ImmediateRead()
 1757              		.loc 11 74 14 is_stmt 1 view .LVU494
 1758              	.LBE436:
 1759              	.LBE433:
 1760              	.LBE432:
 1761              	.LBE431:
 1762              	.LBB445:
 1763              	.LBB446:
  91:DrumModule.cpp ****          gate = false;
 1764              		.loc 8 91 10 view .LVU495
 1765              	.LBE446:
 1766              	.LBE445:
 1767              	.LBB458:
 1768              	.LBB443:
 1769              	.LBB441:
 1770              	.LBB439:
 1771              	.LBB437:
  75:../../libdaisy/src/util/ringbuffer.h ****     {
  76:../../libdaisy/src/util/ringbuffer.h ****         size_t r      = read_ptr_;
 1772              		.loc 11 76 16 is_stmt 0 view .LVU496
 1773 0110 D9F89820 		ldr	r2, [r9, #152]
 1774              	.LVL122:
  77:../../libdaisy/src/util/ringbuffer.h ****         T      result = buffer_[r];
 1775              		.loc 11 77 16 view .LVU497
 1776 0114 02EBC203 		add	r3, r2, r2, lsl #3
  78:../../libdaisy/src/util/ringbuffer.h ****         read_ptr_     = (r + 1) % size;
 1777              		.loc 11 78 28 view .LVU498
 1778 0118 0132     		adds	r2, r2, #1
 1779              	.LVL123:
  77:../../libdaisy/src/util/ringbuffer.h ****         T      result = buffer_[r];
 1780              		.loc 11 77 16 view .LVU499
 1781 011a 1B01     		lsls	r3, r3, #4
 1782              		.loc 11 78 33 view .LVU500
 1783 011c D2B2     		uxtb	r2, r2
  77:../../libdaisy/src/util/ringbuffer.h ****         T      result = buffer_[r];
 1784              		.loc 11 77 16 view .LVU501
 1785 011e 9833     		adds	r3, r3, #152
 1786 0120 E15C     		ldrb	r1, [r4, r3]	@ zero_extendqisi2
 1787 0122 2344     		add	r3, r3, r4
 1788              	.LBE437:
 1789              	.LBE439:
 1790              	.LBE441:
 1791              	.LBE443:
 1792              	.LBE458:
 1793              	.LBB459:
 1794              	.LBB456:
  82:DrumModule.cpp ****         NoteOnEvent noteOn = m.AsNoteOn();
 1795              		.loc 8 82 5 view .LVU502
 1796 0124 0129     		cmp	r1, #1
 1797              	.LBE456:
 1798              	.LBE459:
 1799              	.LBB460:
 1800              	.LBB444:
ARM GAS  /var/folders/0z/b9p8b05s1kb5msq549c5__rh0000gn/T//cciRiJ2K.s 			page 60


 1801              	.LBB442:
 1802              	.LBB440:
 1803              	.LBB438:
  77:../../libdaisy/src/util/ringbuffer.h ****         T      result = buffer_[r];
 1804              		.loc 11 77 16 view .LVU503
 1805 0126 187A     		ldrb	r0, [r3, #8]	@ zero_extendqisi2
 1806 0128 5B7A     		ldrb	r3, [r3, #9]	@ zero_extendqisi2
 1807              		.loc 11 78 23 view .LVU504
 1808 012a C9F89820 		str	r2, [r9, #152]
 1809              	.LVL124:
 1810              		.loc 11 78 23 view .LVU505
 1811              	.LBE438:
 1812              	.LBE440:
 1813              	.LBE442:
 1814              	.LBE444:
 1815              	.LBE460:
 1816              	.LBB461:
 1817              	.LBI445:
  80:DrumModule.cpp **** {
 1818              		.loc 8 80 6 is_stmt 1 view .LVU506
  80:DrumModule.cpp **** {
 1819              		.loc 8 80 6 is_stmt 0 view .LVU507
 1820              	.LBE461:
  82:DrumModule.cpp ****         NoteOnEvent noteOn = m.AsNoteOn();
 1821              		.loc 8 82 5 is_stmt 1 view .LVU508
 1822              	.LBB462:
 1823              	.LBB457:
 1824 012e 03D0     		beq	.L114
  92:DrumModule.cpp ****     } 
 1825              		.loc 8 92 10 view .LVU509
  91:DrumModule.cpp ****          gate = false;
 1826              		.loc 8 91 10 is_stmt 0 view .LVU510
 1827 0130 0029     		cmp	r1, #0
 1828 0132 DDD1     		bne	.L98
  92:DrumModule.cpp ****     } 
 1829              		.loc 8 92 15 view .LVU511
 1830 0134 2970     		strb	r1, [r5]
 1831 0136 DBE7     		b	.L98
 1832              	.L114:
 1833              	.LBB447:
  83:DrumModule.cpp ****         basePitch = noteOn.note;
 1834              		.loc 8 83 9 is_stmt 1 view .LVU512
 1835              	.LVL125:
 1836              	.LBB448:
 1837              	.LBI448:
 239:../../libdaisy/src/hid/MidiEvent.h ****     {
 1838              		.loc 10 239 17 view .LVU513
 1839              	.LBB449:
 241:../../libdaisy/src/hid/MidiEvent.h ****         m.channel  = channel;
 1840              		.loc 10 241 9 view .LVU514
 242:../../libdaisy/src/hid/MidiEvent.h ****         m.note     = data[0];
 1841              		.loc 10 242 9 view .LVU515
 243:../../libdaisy/src/hid/MidiEvent.h ****         m.velocity = data[1];
 1842              		.loc 10 243 9 view .LVU516
 244:../../libdaisy/src/hid/MidiEvent.h ****         return m;
 1843              		.loc 10 244 9 view .LVU517
 1844              		.loc 10 245 9 view .LVU518
ARM GAS  /var/folders/0z/b9p8b05s1kb5msq549c5__rh0000gn/T//cciRiJ2K.s 			page 61


 1845              		.loc 10 245 9 is_stmt 0 view .LVU519
 1846              	.LBE449:
 1847              	.LBE448:
  84:DrumModule.cpp ****         gate = noteOn.velocity > 0;
 1848              		.loc 8 84 9 is_stmt 1 view .LVU520
  87:DrumModule.cpp ****             pitchEnv.Trig();
 1849              		.loc 8 87 13 view .LVU521
 1850              	.LBB450:
 1851              	.LBI450:
  37:DrumModule.cpp ****         trig = true;    
 1852              		.loc 8 37 10 view .LVU522
 1853              	.LBB451:
  38:DrumModule.cpp ****     }
 1854              		.loc 8 38 9 view .LVU523
 1855              	.LBE451:
 1856              	.LBE450:
  84:DrumModule.cpp ****         gate = noteOn.velocity > 0;
 1857              		.loc 8 84 19 is_stmt 0 view .LVU524
 1858 0138 07EE900A 		vmov	s15, r0	@ int
  85:DrumModule.cpp ****         if (gate) {
 1859              		.loc 8 85 32 view .LVU525
 1860 013c 002B     		cmp	r3, #0
  84:DrumModule.cpp ****         gate = noteOn.velocity > 0;
 1861              		.loc 8 84 19 view .LVU526
 1862 013e F8EE677A 		vcvt.f32.u32	s15, s15
  85:DrumModule.cpp ****         if (gate) {
 1863              		.loc 8 85 32 view .LVU527
 1864 0142 14BF     		ite	ne
 1865 0144 0123     		movne	r3, #1
 1866              	.LVL126:
  85:DrumModule.cpp ****         if (gate) {
 1867              		.loc 8 85 32 view .LVU528
 1868 0146 0023     		moveq	r3, #0
  84:DrumModule.cpp ****         gate = noteOn.velocity > 0;
 1869              		.loc 8 84 19 view .LVU529
 1870 0148 C6ED007A 		vstr.32	s15, [r6]
  85:DrumModule.cpp ****         if (gate) {
 1871              		.loc 8 85 9 is_stmt 1 view .LVU530
  85:DrumModule.cpp ****         if (gate) {
 1872              		.loc 8 85 32 is_stmt 0 view .LVU531
 1873 014c 2B70     		strb	r3, [r5]
  86:DrumModule.cpp ****             ampEnv.Trig();
 1874              		.loc 8 86 9 is_stmt 1 view .LVU532
 1875 014e CFD0     		beq	.L98
 1876              	.LBB453:
 1877              	.LBB452:
  38:DrumModule.cpp ****     }
 1878              		.loc 8 38 14 is_stmt 0 view .LVU533
 1879 0150 8AF80810 		strb	r1, [r10, #8]
 1880              	.LVL127:
  38:DrumModule.cpp ****     }
 1881              		.loc 8 38 14 view .LVU534
 1882              	.LBE452:
 1883              	.LBE453:
  88:DrumModule.cpp ****         }
 1884              		.loc 8 88 13 is_stmt 1 view .LVU535
 1885              	.LBB454:
ARM GAS  /var/folders/0z/b9p8b05s1kb5msq549c5__rh0000gn/T//cciRiJ2K.s 			page 62


 1886              	.LBI454:
  37:DrumModule.cpp ****         trig = true;    
 1887              		.loc 8 37 10 view .LVU536
 1888              	.LBB455:
  38:DrumModule.cpp ****     }
 1889              		.loc 8 38 9 view .LVU537
  38:DrumModule.cpp ****     }
 1890              		.loc 8 38 14 is_stmt 0 view .LVU538
 1891 0154 88F80810 		strb	r1, [r8, #8]
  39:DrumModule.cpp **** private:
 1892              		.loc 8 39 5 view .LVU539
 1893 0158 CAE7     		b	.L98
 1894              	.LVL128:
 1895              	.L113:
  39:DrumModule.cpp **** private:
 1896              		.loc 8 39 5 view .LVU540
 1897              	.LBE455:
 1898              	.LBE454:
 1899              	.LBE447:
 1900              	.LBE457:
 1901              	.LBE462:
 1902              	.LBB463:
 1903              	.LBB427:
 1904              	.LBB419:
 1905              	.LBB420:
  64:../../libdaisy/src/hid/midi.h ****     inline void    Tx(uint8_t* buff, size_t size) { uart_.PollTx(buff, size); }
 1906              		.loc 7 64 45 view .LVU541
 1907 015a 0E48     		ldr	r0, .L115+40
 1908              	.LBE420:
 1909              	.LBE419:
 124:../../libdaisy/src/hid/midi.h ****             transport_.FlushRx();
 1910              		.loc 7 124 21 view .LVU542
 1911 015c 2371     		strb	r3, [r4, #4]
 1912              	.LVL129:
 1913              	.LBB422:
 1914              	.LBI419:
  64:../../libdaisy/src/hid/midi.h ****     inline void    Tx(uint8_t* buff, size_t size) { uart_.PollTx(buff, size); }
 1915              		.loc 7 64 20 is_stmt 1 view .LVU543
 1916              	.LBB421:
  64:../../libdaisy/src/hid/midi.h ****     inline void    Tx(uint8_t* buff, size_t size) { uart_.PollTx(buff, size); }
 1917              		.loc 7 64 32 view .LVU544
  64:../../libdaisy/src/hid/midi.h ****     inline void    Tx(uint8_t* buff, size_t size) { uart_.PollTx(buff, size); }
 1918              		.loc 7 64 45 is_stmt 0 view .LVU545
 1919 015e FFF7FEFF 		bl	_ZN5daisy11UartHandler7FlushRxEv
 1920              	.LVL130:
  64:../../libdaisy/src/hid/midi.h ****     inline void    Tx(uint8_t* buff, size_t size) { uart_.PollTx(buff, size); }
 1921              		.loc 7 64 45 view .LVU546
 1922              	.LBE421:
 1923              	.LBE422:
 1924              	.LBB423:
 1925              	.LBI423:
 106:../../libdaisy/src/hid/midi.h **** 
 1926              		.loc 7 106 10 is_stmt 1 view .LVU547
 1927              	.LBB424:
 1928              	.LBB425:
 1929              	.LBI425:
  60:../../libdaisy/src/hid/midi.h ****     inline size_t  Readable() { return uart_.Readable(); }
ARM GAS  /var/folders/0z/b9p8b05s1kb5msq549c5__rh0000gn/T//cciRiJ2K.s 			page 63


 1930              		.loc 7 60 20 view .LVU548
 1931              	.LBB426:
  60:../../libdaisy/src/hid/midi.h ****     inline size_t  Readable() { return uart_.Readable(); }
 1932              		.loc 7 60 32 view .LVU549
  60:../../libdaisy/src/hid/midi.h ****     inline size_t  Readable() { return uart_.Readable(); }
 1933              		.loc 7 60 45 is_stmt 0 view .LVU550
 1934 0162 0C48     		ldr	r0, .L115+40
 1935              	.LVL131:
  60:../../libdaisy/src/hid/midi.h ****     inline size_t  Readable() { return uart_.Readable(); }
 1936              		.loc 7 60 45 view .LVU551
 1937 0164 FFF7FEFF 		bl	_ZN5daisy11UartHandler7StartRxEv
 1938              	.LVL132:
  60:../../libdaisy/src/hid/midi.h ****     inline size_t  Readable() { return uart_.Readable(); }
 1939              		.loc 7 60 45 view .LVU552
 1940              	.LBE426:
 1941              	.LBE425:
 106:../../libdaisy/src/hid/midi.h **** 
 1942              		.loc 7 106 49 view .LVU553
 1943 0168 C2E7     		b	.L98
 1944              	.L116:
 1945 016a 00BF     		.align	2
 1946              	.L115:
 1947 016c 00000000 		.word	.LANCHOR5
 1948 0170 00000000 		.word	.LANCHOR2
 1949 0174 00000000 		.word	.LANCHOR1
 1950 0178 00000000 		.word	.LANCHOR4
 1951 017c 0000C842 		.word	1120403456
 1952 0180 0000DC43 		.word	1138491392
 1953 0184 0AD7A33C 		.word	1017370378
 1954 0188 CDCC4C3E 		.word	1045220557
 1955 018c 00000000 		.word	_Z13AudioCallbackPKfPfj
 1956 0190 00000000 		.word	midi
 1957 0194 B0900000 		.word	midi+37040
 1958 0198 00900000 		.word	midi+36864
 1959 019c 00000000 		.word	.LANCHOR0
 1960 01a0 00000000 		.word	.LANCHOR3
 1961              	.LBE424:
 1962              	.LBE423:
 1963              	.LBE427:
 1964              	.LBE463:
 1965              		.cfi_endproc
 1966              	.LFE4254:
 1968              		.section	.text.startup._GLOBAL__sub_I_hardware,"ax",%progbits
 1969              		.align	1
 1970              		.p2align 2,,3
 1971              		.syntax unified
 1972              		.thumb
 1973              		.thumb_func
 1974              		.fpu fpv5-d16
 1976              	_GLOBAL__sub_I_hardware:
 1977              	.LFB4833:
 140:DrumModule.cpp ****         {
 141:DrumModule.cpp ****             HandleMidiMessage(midi.PopEvent());
 142:DrumModule.cpp ****         }
 143:DrumModule.cpp ****     };
 144:DrumModule.cpp **** }
 1978              		.loc 8 144 1 is_stmt 1 view -0
ARM GAS  /var/folders/0z/b9p8b05s1kb5msq549c5__rh0000gn/T//cciRiJ2K.s 			page 64


 1979              		.cfi_startproc
 1980              		@ args = 0, pretend = 0, frame = 0
 1981              		@ frame_needed = 0, uses_anonymous_args = 0
 1982              	.LBB497:
 1983              	.LBI497:
 1984              		.loc 8 144 1 view .LVU555
 1985              	.LVL133:
 1986              	.LBB498:
 1987              	.LBB499:
 1988              	.LBI499:
  21:../../libdaisy/src/daisy_seed.h ****     ~DaisySeed() {}
 1989              		.loc 1 21 5 view .LVU556
 1990              	.LBB500:
 1991              	.LBB501:
 1992              	.LBI501:
  62:../../libdaisy/src/hid/audio.h ****     ~AudioHandle() {}
 1993              		.loc 5 62 5 view .LVU557
 1994              	.LBE501:
 1995              	.LBE500:
 1996              	.LBE499:
 1997              	.LBE498:
 1998              	.LBE497:
 1999              		.loc 8 144 1 is_stmt 0 view .LVU558
 2000 0000 38B5     		push	{r3, r4, r5, lr}
 2001              		.cfi_def_cfa_offset 16
 2002              		.cfi_offset 3, -16
 2003              		.cfi_offset 4, -12
 2004              		.cfi_offset 5, -8
 2005              		.cfi_offset 14, -4
 2006              	.LBB557:
 2007              	.LBB555:
 2008              	.LBB516:
 2009              	.LBB514:
 2010              	.LBB506:
 2011              	.LBB502:
 2012              	.LBB503:
  62:../../libdaisy/src/hid/audio.h ****     ~AudioHandle() {}
 2013              		.loc 5 62 35 view .LVU559
 2014 0002 1648     		ldr	r0, .L119
 2015 0004 0024     		movs	r4, #0
 2016              	.LBE503:
 2017              	.LBE502:
 2018              	.LBE506:
 2019              	.LBE514:
 2020              	.LBE516:
  10:DrumModule.cpp **** Oscillator osc;
 2021              		.loc 8 10 12 view .LVU560
 2022 0006 164A     		ldr	r2, .L119+4
 2023 0008 1649     		ldr	r1, .L119+8
 2024              	.LBB517:
 2025              	.LBB515:
 2026              	.LBB507:
 2027              	.LBB505:
 2028              	.LBB504:
  62:../../libdaisy/src/hid/audio.h ****     ~AudioHandle() {}
 2029              		.loc 5 62 35 view .LVU561
 2030 000a 4461     		str	r4, [r0, #20]
ARM GAS  /var/folders/0z/b9p8b05s1kb5msq549c5__rh0000gn/T//cciRiJ2K.s 			page 65


 2031              	.LVL134:
  62:../../libdaisy/src/hid/audio.h ****     ~AudioHandle() {}
 2032              		.loc 5 62 35 view .LVU562
 2033              	.LBE504:
 2034              	.LBE505:
 2035              	.LBE507:
 2036              	.LBB508:
 2037              	.LBI508:
  84:../../libdaisy/src/per/adc.h ****     ~AdcHandle() {}
 2038              		.loc 4 84 5 is_stmt 1 view .LVU563
  84:../../libdaisy/src/per/adc.h ****     ~AdcHandle() {}
 2039              		.loc 4 84 5 is_stmt 0 view .LVU564
 2040              	.LBE508:
 2041              	.LBB509:
 2042              	.LBI509:
 2043              		.file 12 "../../libdaisy/src/per/dac.h"
   1:../../libdaisy/src/per/dac.h **** #pragma once
   2:../../libdaisy/src/per/dac.h **** #ifndef DSY_DAC_H
   3:../../libdaisy/src/per/dac.h **** #define DSY_DAC_H
   4:../../libdaisy/src/per/dac.h **** 
   5:../../libdaisy/src/per/dac.h **** #include "daisy_core.h"
   6:../../libdaisy/src/per/dac.h **** 
   7:../../libdaisy/src/per/dac.h **** namespace daisy
   8:../../libdaisy/src/per/dac.h **** {
   9:../../libdaisy/src/per/dac.h **** /** DAC handle for Built-in DAC Peripheral 
  10:../../libdaisy/src/per/dac.h ****  ** 
  11:../../libdaisy/src/per/dac.h ****  ** For now only Normal Mode is supported,
  12:../../libdaisy/src/per/dac.h ****  ** Sample and hold mode provides reduced power consumption, but requires a bit more setup.
  13:../../libdaisy/src/per/dac.h ****  **
  14:../../libdaisy/src/per/dac.h ****  ** For now connecting the DAC through other internal periphearls is also not supported.
  15:../../libdaisy/src/per/dac.h ****  **
  16:../../libdaisy/src/per/dac.h ****  ** Since the DAC channels have dedicated pins we don't need to pass in a pin config like with
  17:../../libdaisy/src/per/dac.h ****  ** other modules. However, it is still important to not try to use the DAC pins for anything else.
  18:../../libdaisy/src/per/dac.h ****  ** DAC Channel 1 is on PA4, and DAC Channel 2 is on PA5
  19:../../libdaisy/src/per/dac.h ****  ***/
  20:../../libdaisy/src/per/dac.h **** class DacHandle
  21:../../libdaisy/src/per/dac.h **** {
  22:../../libdaisy/src/per/dac.h ****   public:
  23:../../libdaisy/src/per/dac.h ****     /** Return Values for the DacHandle class */
  24:../../libdaisy/src/per/dac.h ****     enum class Result
  25:../../libdaisy/src/per/dac.h ****     {
  26:../../libdaisy/src/per/dac.h ****         OK,
  27:../../libdaisy/src/per/dac.h ****         ERR,
  28:../../libdaisy/src/per/dac.h ****     };
  29:../../libdaisy/src/per/dac.h **** 
  30:../../libdaisy/src/per/dac.h ****     /** Selects which channel(s) will be configured for use. */
  31:../../libdaisy/src/per/dac.h ****     enum class Channel
  32:../../libdaisy/src/per/dac.h ****     {
  33:../../libdaisy/src/per/dac.h ****         ONE,
  34:../../libdaisy/src/per/dac.h ****         TWO,
  35:../../libdaisy/src/per/dac.h ****         BOTH,
  36:../../libdaisy/src/per/dac.h ****     };
  37:../../libdaisy/src/per/dac.h **** 
  38:../../libdaisy/src/per/dac.h ****     /** Sets the Mode for the DAC channels.
  39:../../libdaisy/src/per/dac.h ****      **
  40:../../libdaisy/src/per/dac.h ****      ** Polling mode uses the blocking mode to transmit a single value at a time.
  41:../../libdaisy/src/per/dac.h ****      **
ARM GAS  /var/folders/0z/b9p8b05s1kb5msq549c5__rh0000gn/T//cciRiJ2K.s 			page 66


  42:../../libdaisy/src/per/dac.h ****      ** DMA mode uses a buffer, and periodically transmits it triggering a 
  43:../../libdaisy/src/per/dac.h ****      ** callback to fill the buffer when it is ready for more samples.
  44:../../libdaisy/src/per/dac.h ****      ***/
  45:../../libdaisy/src/per/dac.h ****     enum class Mode
  46:../../libdaisy/src/per/dac.h ****     {
  47:../../libdaisy/src/per/dac.h ****         POLLING,
  48:../../libdaisy/src/per/dac.h ****         DMA,
  49:../../libdaisy/src/per/dac.h ****     };
  50:../../libdaisy/src/per/dac.h **** 
  51:../../libdaisy/src/per/dac.h ****     /** Sets the number of bits per sample transmitted out of the DAC.
  52:../../libdaisy/src/per/dac.h ****      ** The output range will be: 0V - VDDA
  53:../../libdaisy/src/per/dac.h ****      ** The resolution will be roughly: bitdepth / (VDDA - 0V) 
  54:../../libdaisy/src/per/dac.h ****      ***/
  55:../../libdaisy/src/per/dac.h ****     enum class BitDepth
  56:../../libdaisy/src/per/dac.h ****     {
  57:../../libdaisy/src/per/dac.h ****         BITS_8,
  58:../../libdaisy/src/per/dac.h ****         BITS_12
  59:../../libdaisy/src/per/dac.h ****     };
  60:../../libdaisy/src/per/dac.h **** 
  61:../../libdaisy/src/per/dac.h ****     /** Sets whether the DAC output is buffered for higher drive ability. */
  62:../../libdaisy/src/per/dac.h ****     enum class BufferState
  63:../../libdaisy/src/per/dac.h ****     {
  64:../../libdaisy/src/per/dac.h ****         ENABLED,
  65:../../libdaisy/src/per/dac.h ****         DISABLED,
  66:../../libdaisy/src/per/dac.h ****     };
  67:../../libdaisy/src/per/dac.h **** 
  68:../../libdaisy/src/per/dac.h ****     /** Configuration structure for initializing the DAC structure. */
  69:../../libdaisy/src/per/dac.h ****     struct Config
  70:../../libdaisy/src/per/dac.h ****     {
  71:../../libdaisy/src/per/dac.h ****         /** Target Samplerate in Hz used to configure the internal 
  72:../../libdaisy/src/per/dac.h ****          ** timebase for DMA mode. Does nothing in POLLING mode.
  73:../../libdaisy/src/per/dac.h ****          ** If the value is 0 at Init time this will default to 48000Hz 
  74:../../libdaisy/src/per/dac.h ****          ** otherwise the driver will attempt meet the target.*/
  75:../../libdaisy/src/per/dac.h ****         uint32_t target_samplerate;
  76:../../libdaisy/src/per/dac.h **** 
  77:../../libdaisy/src/per/dac.h ****         Channel     chn;
  78:../../libdaisy/src/per/dac.h ****         Mode        mode;
  79:../../libdaisy/src/per/dac.h ****         BitDepth    bitdepth;
  80:../../libdaisy/src/per/dac.h ****         BufferState buff_state;
  81:../../libdaisy/src/per/dac.h ****     };
  82:../../libdaisy/src/per/dac.h **** 
  83:../../libdaisy/src/per/dac.h ****     DacHandle() : pimpl_(nullptr) {}
 2044              		.loc 12 83 5 is_stmt 1 view .LVU565
 2045              	.LBB510:
 2046              	.LBB511:
 2047              		.loc 12 83 33 is_stmt 0 view .LVU566
 2048 000c 0462     		str	r4, [r0, #32]
 2049              	.LVL135:
 2050              		.loc 12 83 33 view .LVU567
 2051              	.LBE511:
 2052              	.LBE510:
 2053              	.LBE509:
 2054              	.LBB512:
 2055              	.LBI512:
  40:../../libdaisy/src/hid/usb.h **** 
 2056              		.loc 3 40 5 is_stmt 1 view .LVU568
  40:../../libdaisy/src/hid/usb.h **** 
ARM GAS  /var/folders/0z/b9p8b05s1kb5msq549c5__rh0000gn/T//cciRiJ2K.s 			page 67


 2057              		.loc 3 40 5 is_stmt 0 view .LVU569
 2058              	.LBE512:
 2059              	.LBB513:
 2060              	.LBI513:
  58:../../libdaisy/src/sys/system.h ****     ~System() {}
 2061              		.loc 2 58 5 is_stmt 1 view .LVU570
  58:../../libdaisy/src/sys/system.h ****     ~System() {}
 2062              		.loc 2 58 5 is_stmt 0 view .LVU571
 2063              	.LBE513:
 2064              	.LBE515:
 2065              	.LBE517:
  10:DrumModule.cpp **** Oscillator osc;
 2066              		.loc 8 10 12 view .LVU572
 2067 000e FFF7FEFF 		bl	__aeabi_atexit
 2068              	.LVL136:
 2069              	.LBB518:
 2070              	.LBI518:
  15:../../DaisySP/Source/Synthesis/oscillator.h ****     ~Oscillator() {}
 2071              		.loc 6 15 5 is_stmt 1 view .LVU573
  15:../../DaisySP/Source/Synthesis/oscillator.h ****     ~Oscillator() {}
 2072              		.loc 6 15 5 is_stmt 0 view .LVU574
 2073              	.LBE518:
  11:DrumModule.cpp **** 
 2074              		.loc 8 11 12 view .LVU575
 2075 0012 134A     		ldr	r2, .L119+4
 2076 0014 1449     		ldr	r1, .L119+12
 2077 0016 1548     		ldr	r0, .L119+16
 2078 0018 FFF7FEFF 		bl	__aeabi_atexit
 2079              	.LVL137:
 2080              	.LBB519:
 2081              	.LBI519:
  82:../../libdaisy/src/hid/midi.h ****     ~MidiHandler() {}
 2082              		.loc 7 82 5 is_stmt 1 view .LVU576
 2083              	.LBB520:
 2084              	.LBB521:
 2085              	.LBB522:
 2086              	.LBI522:
 2087              		.file 13 "../../libdaisy/src/per/uart.h"
   1:../../libdaisy/src/per/uart.h **** /* 
   2:../../libdaisy/src/per/uart.h **** TODO
   3:../../libdaisy/src/per/uart.h **** - UART1 defaults to DMA, add flexible config for DMA on all periphs
   4:../../libdaisy/src/per/uart.h **** - Transmit function improvements.
   5:../../libdaisy/src/per/uart.h **** - Overflow handling, etc. for Rx Queue.
   6:../../libdaisy/src/per/uart.h **** */
   7:../../libdaisy/src/per/uart.h **** 
   8:../../libdaisy/src/per/uart.h **** #pragma once
   9:../../libdaisy/src/per/uart.h **** #ifndef DSY_UART_H
  10:../../libdaisy/src/per/uart.h **** #define DSY_UART_H /**< macro */
  11:../../libdaisy/src/per/uart.h **** #include "daisy_core.h"
  12:../../libdaisy/src/per/uart.h **** 
  13:../../libdaisy/src/per/uart.h **** 
  14:../../libdaisy/src/per/uart.h **** namespace daisy
  15:../../libdaisy/src/per/uart.h **** {
  16:../../libdaisy/src/per/uart.h **** /** @addtogroup serial
  17:../../libdaisy/src/per/uart.h ****     @{
  18:../../libdaisy/src/per/uart.h ****     */
  19:../../libdaisy/src/per/uart.h **** 
ARM GAS  /var/folders/0z/b9p8b05s1kb5msq549c5__rh0000gn/T//cciRiJ2K.s 			page 68


  20:../../libdaisy/src/per/uart.h **** /** 
  21:../../libdaisy/src/per/uart.h ****     Uart Peripheral
  22:../../libdaisy/src/per/uart.h ****     @author shensley
  23:../../libdaisy/src/per/uart.h ****     @date March 2020
  24:../../libdaisy/src/per/uart.h ****     */
  25:../../libdaisy/src/per/uart.h **** class UartHandler
  26:../../libdaisy/src/per/uart.h **** {
  27:../../libdaisy/src/per/uart.h ****   public:
  28:../../libdaisy/src/per/uart.h ****     struct Config
  29:../../libdaisy/src/per/uart.h ****     {
  30:../../libdaisy/src/per/uart.h ****         enum class Peripheral
  31:../../libdaisy/src/per/uart.h ****         {
  32:../../libdaisy/src/per/uart.h ****             USART_1,
  33:../../libdaisy/src/per/uart.h ****             USART_2,
  34:../../libdaisy/src/per/uart.h ****             USART_3,
  35:../../libdaisy/src/per/uart.h ****             UART_4,
  36:../../libdaisy/src/per/uart.h ****             UART_5,
  37:../../libdaisy/src/per/uart.h ****             USART_6,
  38:../../libdaisy/src/per/uart.h ****             UART_7,
  39:../../libdaisy/src/per/uart.h ****             UART_8,
  40:../../libdaisy/src/per/uart.h ****             LPUART_1,
  41:../../libdaisy/src/per/uart.h ****         };
  42:../../libdaisy/src/per/uart.h **** 
  43:../../libdaisy/src/per/uart.h ****         enum class StopBits
  44:../../libdaisy/src/per/uart.h ****         {
  45:../../libdaisy/src/per/uart.h ****             BITS_0_5,
  46:../../libdaisy/src/per/uart.h ****             BITS_1,
  47:../../libdaisy/src/per/uart.h ****             BITS_1_5,
  48:../../libdaisy/src/per/uart.h ****             BITS_2,
  49:../../libdaisy/src/per/uart.h ****         };
  50:../../libdaisy/src/per/uart.h **** 
  51:../../libdaisy/src/per/uart.h ****         enum class Parity
  52:../../libdaisy/src/per/uart.h ****         {
  53:../../libdaisy/src/per/uart.h ****             NONE,
  54:../../libdaisy/src/per/uart.h ****             EVEN,
  55:../../libdaisy/src/per/uart.h ****             ODD,
  56:../../libdaisy/src/per/uart.h ****         };
  57:../../libdaisy/src/per/uart.h **** 
  58:../../libdaisy/src/per/uart.h ****         enum class Mode
  59:../../libdaisy/src/per/uart.h ****         {
  60:../../libdaisy/src/per/uart.h ****             RX,
  61:../../libdaisy/src/per/uart.h ****             TX,
  62:../../libdaisy/src/per/uart.h ****             TX_RX,
  63:../../libdaisy/src/per/uart.h ****         };
  64:../../libdaisy/src/per/uart.h **** 
  65:../../libdaisy/src/per/uart.h ****         enum class WordLength
  66:../../libdaisy/src/per/uart.h ****         {
  67:../../libdaisy/src/per/uart.h ****             BITS_7,
  68:../../libdaisy/src/per/uart.h ****             BITS_8,
  69:../../libdaisy/src/per/uart.h ****             BITS_9,
  70:../../libdaisy/src/per/uart.h ****         };
  71:../../libdaisy/src/per/uart.h **** 
  72:../../libdaisy/src/per/uart.h ****         struct
  73:../../libdaisy/src/per/uart.h ****         {
  74:../../libdaisy/src/per/uart.h ****             dsy_gpio_pin tx; /**< & */
  75:../../libdaisy/src/per/uart.h ****             dsy_gpio_pin rx; /**< & */
  76:../../libdaisy/src/per/uart.h ****         } pin_config;        /**< & */
ARM GAS  /var/folders/0z/b9p8b05s1kb5msq549c5__rh0000gn/T//cciRiJ2K.s 			page 69


  77:../../libdaisy/src/per/uart.h **** 
  78:../../libdaisy/src/per/uart.h ****         Peripheral periph;
  79:../../libdaisy/src/per/uart.h ****         StopBits   stopbits;
  80:../../libdaisy/src/per/uart.h ****         Parity     parity;
  81:../../libdaisy/src/per/uart.h ****         Mode       mode;
  82:../../libdaisy/src/per/uart.h ****         WordLength wordlength;
  83:../../libdaisy/src/per/uart.h ****         uint32_t   baudrate;
  84:../../libdaisy/src/per/uart.h ****     };
  85:../../libdaisy/src/per/uart.h **** 
  86:../../libdaisy/src/per/uart.h **** 
  87:../../libdaisy/src/per/uart.h ****     UartHandler() : pimpl_(nullptr) {}
 2088              		.loc 13 87 5 view .LVU577
 2089              	.LBB523:
 2090              	.LBB524:
 2091              		.loc 13 87 35 is_stmt 0 view .LVU578
 2092 001c 1448     		ldr	r0, .L119+20
 2093              	.LBE524:
 2094              	.LBE523:
 2095              	.LBE522:
 2096              	.LBB527:
 2097              	.LBB528:
 2098              	.LBB529:
 2099              	.LBB530:
  36:../../libdaisy/src/hid/midi.h ****             tx     = {DSY_GPIOB, 6};
 2100              		.loc 7 36 20 view .LVU579
 2101 001e 154D     		ldr	r5, .L119+24
  35:../../libdaisy/src/hid/midi.h ****             rx     = {DSY_GPIOB, 7};
 2102              		.loc 7 35 20 view .LVU580
 2103 0020 00F51043 		add	r3, r0, #36864
 2104              	.LBE530:
 2105              	.LBE529:
 2106              	.LBE528:
 2107              	.LBE527:
  82:../../libdaisy/src/hid/midi.h ****     ~MidiHandler() {}
 2108              		.loc 7 82 19 view .LVU581
 2109 0024 1449     		ldr	r1, .L119+28
 2110              	.LBB543:
 2111              	.LBB526:
 2112              	.LBB525:
 2113              		.loc 13 87 35 view .LVU582
 2114 0026 0460     		str	r4, [r0]
 2115              	.LVL138:
 2116              		.loc 13 87 35 view .LVU583
 2117              	.LBE525:
 2118              	.LBE526:
 2119              	.LBE543:
 2120              	.LBB544:
 2121              	.LBI544:
  21:../../libdaisy/src/util/ringbuffer.h **** 
 2122              		.loc 11 21 5 is_stmt 1 view .LVU584
  21:../../libdaisy/src/util/ringbuffer.h **** 
 2123              		.loc 11 21 5 is_stmt 0 view .LVU585
 2124              	.LBE544:
 2125              	.LBB545:
 2126              	.LBI527:
  85:../../libdaisy/src/hid/midi.h ****     {
 2127              		.loc 7 85 12 is_stmt 1 view .LVU586
ARM GAS  /var/folders/0z/b9p8b05s1kb5msq549c5__rh0000gn/T//cciRiJ2K.s 			page 70


 2128              	.LBB539:
 2129              	.LBI528:
  33:../../libdaisy/src/hid/midi.h ****         {
 2130              		.loc 7 33 9 view .LVU587
 2131              	.LBB535:
 2132              	.LBB531:
  35:../../libdaisy/src/hid/midi.h ****             rx     = {DSY_GPIOB, 7};
 2133              		.loc 7 35 13 view .LVU588
  35:../../libdaisy/src/hid/midi.h ****             rx     = {DSY_GPIOB, 7};
 2134              		.loc 7 35 20 is_stmt 0 view .LVU589
 2135 0028 C3F8A840 		str	r4, [r3, #168]
  36:../../libdaisy/src/hid/midi.h ****             tx     = {DSY_GPIOB, 6};
 2136              		.loc 7 36 13 is_stmt 1 view .LVU590
 2137              	.LBE531:
 2138              	.LBE535:
 2139              	.LBE539:
 2140              	.LBE545:
 2141              	.LBB546:
 2142              	.LBB547:
 2143              	.LBB548:
 2144              	.LBB549:
 2145              		.loc 13 87 35 is_stmt 0 view .LVU591
 2146 002c C3F8B040 		str	r4, [r3, #176]
 2147              	.LBE549:
 2148              	.LBE548:
 2149              	.LBE547:
 2150              	.LBE546:
  82:../../libdaisy/src/hid/midi.h ****     ~MidiHandler() {}
 2151              		.loc 7 82 19 view .LVU592
 2152 0030 C3F8B410 		str	r1, [r3, #180]
 2153 0034 4FF60F01 		movw	r1, #63503
 2154              	.LBB551:
 2155              	.LBB540:
 2156              	.LBB536:
 2157              	.LBB532:
  36:../../libdaisy/src/hid/midi.h ****             tx     = {DSY_GPIOB, 6};
 2158              		.loc 7 36 20 view .LVU593
 2159 0038 2C88     		ldrh	r4, [r5]
 2160              	.LBE532:
 2161              	.LBE536:
 2162              	.LBE540:
 2163              	.LBE551:
  82:../../libdaisy/src/hid/midi.h ****     ~MidiHandler() {}
 2164              		.loc 7 82 19 view .LVU594
 2165 003a A3F8B810 		strh	r1, [r3, #184]	@ movhi
 2166 003e 0721     		movs	r1, #7
 2167              	.LBB552:
 2168              	.LBB541:
 2169              	.LBB537:
 2170              	.LBB533:
  36:../../libdaisy/src/hid/midi.h ****             tx     = {DSY_GPIOB, 6};
 2171              		.loc 7 36 20 view .LVU595
 2172 0040 A3F8AC40 		strh	r4, [r3, #172]	@ movhi
  37:../../libdaisy/src/hid/midi.h ****         }
 2173              		.loc 7 37 13 is_stmt 1 view .LVU596
  37:../../libdaisy/src/hid/midi.h ****         }
 2174              		.loc 7 37 20 is_stmt 0 view .LVU597
ARM GAS  /var/folders/0z/b9p8b05s1kb5msq549c5__rh0000gn/T//cciRiJ2K.s 			page 71


 2175 0044 AC88     		ldrh	r4, [r5, #4]
 2176              	.LBE533:
 2177              	.LBE537:
 2178              	.LBE541:
 2179              	.LBE552:
  82:../../libdaisy/src/hid/midi.h ****     ~MidiHandler() {}
 2180              		.loc 7 82 19 view .LVU598
 2181 0046 83F8BA10 		strb	r1, [r3, #186]
 2182              	.LBB553:
 2183              	.LBB542:
 2184              	.LBB538:
 2185              	.LBB534:
  37:../../libdaisy/src/hid/midi.h ****         }
 2186              		.loc 7 37 20 view .LVU599
 2187 004a A3F8AE40 		strh	r4, [r3, #174]	@ movhi
 2188              	.LVL139:
  37:../../libdaisy/src/hid/midi.h ****         }
 2189              		.loc 7 37 20 view .LVU600
 2190              	.LBE534:
 2191              	.LBE538:
 2192              	.LBE542:
 2193              	.LBE553:
 2194              	.LBB554:
 2195              	.LBI546:
  24:../../libdaisy/src/hid/midi.h ****     ~MidiUartTransport() {}
 2196              		.loc 7 24 5 is_stmt 1 view .LVU601
 2197              	.LBB550:
 2198              	.LBI547:
 2199              		.loc 13 87 5 view .LVU602
 2200              		.loc 13 87 5 is_stmt 0 view .LVU603
 2201              	.LBE550:
 2202              	.LBE554:
 2203              	.LBE521:
 2204              	.LBE520:
 2205              	.LBE519:
  53:DrumModule.cpp **** 
 2206              		.loc 8 53 17 view .LVU604
 2207 004e 044A     		ldr	r2, .L119+4
 2208 0050 0A49     		ldr	r1, .L119+32
 2209              	.LBE555:
 2210              	.LBE557:
 2211              		.loc 8 144 1 view .LVU605
 2212 0052 BDE83840 		pop	{r3, r4, r5, lr}
 2213              		.cfi_restore 14
 2214              		.cfi_restore 5
 2215              		.cfi_restore 4
 2216              		.cfi_restore 3
 2217              		.cfi_def_cfa_offset 0
 2218              	.LBB558:
 2219              	.LBB556:
  53:DrumModule.cpp **** 
 2220              		.loc 8 53 17 view .LVU606
 2221 0056 FFF7FEBF 		b	__aeabi_atexit
 2222              	.LVL140:
 2223              	.L120:
 2224 005a 00BF     		.align	2
 2225              	.L119:
ARM GAS  /var/folders/0z/b9p8b05s1kb5msq549c5__rh0000gn/T//cciRiJ2K.s 			page 72


 2226 005c 00000000 		.word	.LANCHOR5
 2227 0060 00000000 		.word	__dso_handle
 2228 0064 00000000 		.word	_ZN5daisy9DaisySeedD1Ev
 2229 0068 00000000 		.word	_ZN7daisysp10OscillatorD1Ev
 2230 006c 00000000 		.word	.LANCHOR2
 2231 0070 00000000 		.word	midi
 2232 0074 00000000 		.word	.LANCHOR6
 2233 0078 80707FF0 		.word	-260083584
 2234 007c 00000000 		.word	_ZN5daisy11MidiHandlerINS_17MidiUartTransportEED1Ev
 2235              	.LBE556:
 2236              	.LBE558:
 2237              		.cfi_endproc
 2238              	.LFE4833:
 2240              		.section	.init_array,"aw",%init_array
 2241              		.align	2
 2242 0000 00000000 		.word	_GLOBAL__sub_I_hardware(target1)
 2243              		.global	midi
 2244              		.global	ampEnv
 2245              		.global	pitchEnv
 2246              		.global	basePitch
 2247              		.global	gate
 2248              		.global	osc
 2249              		.global	hardware
 2250              		.section	.rodata
 2251              		.align	2
 2252              		.set	.LANCHOR6,. + 0
 2253              	.LC0:
 2254 0000 01       		.byte	1
 2255 0001 07       		.byte	7
 2256 0002 0000     		.space	2
 2257              	.LC1:
 2258 0004 01       		.byte	1
 2259 0005 06       		.byte	6
 2260              		.section	.bss.gate,"aw",%nobits
 2261              		.set	.LANCHOR4,. + 0
 2264              	gate:
 2265 0000 00       		.space	1
 2266              		.section	.bss.hardware,"aw",%nobits
 2267              		.align	2
 2268              		.set	.LANCHOR5,. + 0
 2271              	hardware:
 2272 0000 00000000 		.space	60
 2272      00000000 
 2272      00000000 
 2272      00000000 
 2272      00000000 
 2273              		.section	.bss.midi,"aw",%nobits
 2274              		.align	2
 2277              	midi:
 2278 0000 00000000 		.space	37052
 2278      00000000 
 2278      00000000 
 2278      00000000 
 2278      00000000 
 2279              		.section	.bss.osc,"aw",%nobits
 2280              		.align	2
 2281              		.set	.LANCHOR2,. + 0
ARM GAS  /var/folders/0z/b9p8b05s1kb5msq549c5__rh0000gn/T//cciRiJ2K.s 			page 73


 2284              	osc:
 2285 0000 00000000 		.space	40
 2285      00000000 
 2285      00000000 
 2285      00000000 
 2285      00000000 
 2286              		.section	.data.ampEnv,"aw"
 2287              		.align	2
 2288              		.set	.LANCHOR3,. + 0
 2291              	ampEnv:
 2292 0000 00442C47 		.word	1194083328
 2293 0004 00000000 		.word	0
 2294 0008 00       		.byte	0
 2295 0009 000000   		.space	3
 2296 000c 6F12833A 		.word	981668463
 2297              		.section	.data.basePitch,"aw"
 2298              		.align	2
 2299              		.set	.LANCHOR1,. + 0
 2302              	basePitch:
 2303 0000 00007042 		.word	1114636288
 2304              		.section	.data.pitchEnv,"aw"
 2305              		.align	2
 2306              		.set	.LANCHOR0,. + 0
 2309              	pitchEnv:
 2310 0000 00442C47 		.word	1194083328
 2311 0004 00000000 		.word	0
 2312 0008 00       		.byte	0
 2313 0009 000000   		.space	3
 2314 000c 6F12833A 		.word	981668463
 2315              		.text
 2316              	.Letext0:
 2317              		.file 14 "/opt/homebrew/Caskroom/gcc-arm-embedded/10-2020-q4-major/gcc-arm-none-eabi-10-2020-q4-ma
 2318              		.file 15 "/opt/homebrew/Caskroom/gcc-arm-embedded/10-2020-q4-major/gcc-arm-none-eabi-10-2020-q4-ma
 2319              		.file 16 "/opt/homebrew/Caskroom/gcc-arm-embedded/10-2020-q4-major/gcc-arm-none-eabi-10-2020-q4-ma
 2320              		.file 17 "/opt/homebrew/Caskroom/gcc-arm-embedded/10-2020-q4-major/gcc-arm-none-eabi-10-2020-q4-ma
 2321              		.file 18 "/opt/homebrew/Caskroom/gcc-arm-embedded/10-2020-q4-major/gcc-arm-none-eabi-10-2020-q4-ma
 2322              		.file 19 "/opt/homebrew/Caskroom/gcc-arm-embedded/10-2020-q4-major/gcc-arm-none-eabi-10-2020-q4-ma
 2323              		.file 20 "/opt/homebrew/Caskroom/gcc-arm-embedded/10-2020-q4-major/gcc-arm-none-eabi-10-2020-q4-ma
 2324              		.file 21 "/opt/homebrew/Caskroom/gcc-arm-embedded/10-2020-q4-major/gcc-arm-none-eabi-10-2020-q4-ma
 2325              		.file 22 "/opt/homebrew/Caskroom/gcc-arm-embedded/10-2020-q4-major/gcc-arm-none-eabi-10-2020-q4-ma
 2326              		.file 23 "/opt/homebrew/Caskroom/gcc-arm-embedded/10-2020-q4-major/gcc-arm-none-eabi-10-2020-q4-ma
 2327              		.file 24 "/opt/homebrew/Caskroom/gcc-arm-embedded/10-2020-q4-major/gcc-arm-none-eabi-10-2020-q4-ma
 2328              		.file 25 "/opt/homebrew/Caskroom/gcc-arm-embedded/10-2020-q4-major/gcc-arm-none-eabi-10-2020-q4-ma
 2329              		.file 26 "/opt/homebrew/Caskroom/gcc-arm-embedded/10-2020-q4-major/gcc-arm-none-eabi-10-2020-q4-ma
 2330              		.file 27 "/opt/homebrew/Caskroom/gcc-arm-embedded/10-2020-q4-major/gcc-arm-none-eabi-10-2020-q4-ma
 2331              		.file 28 "/opt/homebrew/Caskroom/gcc-arm-embedded/10-2020-q4-major/gcc-arm-none-eabi-10-2020-q4-ma
 2332              		.file 29 "/opt/homebrew/Caskroom/gcc-arm-embedded/10-2020-q4-major/gcc-arm-none-eabi-10-2020-q4-ma
 2333              		.file 30 "/opt/homebrew/Caskroom/gcc-arm-embedded/10-2020-q4-major/gcc-arm-none-eabi-10-2020-q4-ma
 2334              		.file 31 "/opt/homebrew/Caskroom/gcc-arm-embedded/10-2020-q4-major/gcc-arm-none-eabi-10-2020-q4-ma
 2335              		.file 32 "/opt/homebrew/Caskroom/gcc-arm-embedded/10-2020-q4-major/gcc-arm-none-eabi-10-2020-q4-ma
 2336              		.file 33 "/opt/homebrew/Caskroom/gcc-arm-embedded/10-2020-q4-major/gcc-arm-none-eabi-10-2020-q4-ma
 2337              		.file 34 "/opt/homebrew/Caskroom/gcc-arm-embedded/10-2020-q4-major/gcc-arm-none-eabi-10-2020-q4-ma
 2338              		.file 35 "/opt/homebrew/Caskroom/gcc-arm-embedded/10-2020-q4-major/gcc-arm-none-eabi-10-2020-q4-ma
 2339              		.file 36 "/opt/homebrew/Caskroom/gcc-arm-embedded/10-2020-q4-major/gcc-arm-none-eabi-10-2020-q4-ma
 2340              		.file 37 "/opt/homebrew/Caskroom/gcc-arm-embedded/10-2020-q4-major/gcc-arm-none-eabi-10-2020-q4-ma
 2341              		.file 38 "/opt/homebrew/Caskroom/gcc-arm-embedded/10-2020-q4-major/gcc-arm-none-eabi-10-2020-q4-ma
 2342              		.file 39 "/opt/homebrew/Caskroom/gcc-arm-embedded/10-2020-q4-major/gcc-arm-none-eabi-10-2020-q4-ma
ARM GAS  /var/folders/0z/b9p8b05s1kb5msq549c5__rh0000gn/T//cciRiJ2K.s 			page 74


 2343              		.file 40 "/opt/homebrew/Caskroom/gcc-arm-embedded/10-2020-q4-major/gcc-arm-none-eabi-10-2020-q4-ma
 2344              		.file 41 "/opt/homebrew/Caskroom/gcc-arm-embedded/10-2020-q4-major/gcc-arm-none-eabi-10-2020-q4-ma
 2345              		.file 42 "/opt/homebrew/Caskroom/gcc-arm-embedded/10-2020-q4-major/gcc-arm-none-eabi-10-2020-q4-ma
 2346              		.file 43 "../../libdaisy/src/daisy_core.h"
 2347              		.file 44 "../../libdaisy/src/per/tim.h"
 2348              		.file 45 "../../libdaisy/src/per/sai.h"
 2349              		.file 46 "../../libdaisy/src/util/wav_format.h"
 2350              		.file 47 "../../libdaisy/src/per/qspi.h"
 2351              		.file 48 "../../libdaisy/src/per/gpio.h"
 2352              		.file 49 "../../libdaisy/src/dev/sdram.h"
 2353              		.file 50 "/opt/homebrew/Caskroom/gcc-arm-embedded/10-2020-q4-major/gcc-arm-none-eabi-10-2020-q4-ma
 2354              		.file 51 "/opt/homebrew/Caskroom/gcc-arm-embedded/10-2020-q4-major/gcc-arm-none-eabi-10-2020-q4-ma
 2355              		.file 52 "../../DaisySP/Source/Control/adenv.h"
 2356              		.file 53 "/opt/homebrew/Caskroom/gcc-arm-embedded/10-2020-q4-major/gcc-arm-none-eabi-10-2020-q4-ma
 2357              		.file 54 "/opt/homebrew/Caskroom/gcc-arm-embedded/10-2020-q4-major/gcc-arm-none-eabi-10-2020-q4-ma
 2358              		.file 55 "/opt/homebrew/Caskroom/gcc-arm-embedded/10-2020-q4-major/gcc-arm-none-eabi-10-2020-q4-ma
 2359              		.file 56 "<built-in>"
 2360              		.file 57 "../../libdaisy/src/dev/sr_595.h"
ARM GAS  /var/folders/0z/b9p8b05s1kb5msq549c5__rh0000gn/T//cciRiJ2K.s 			page 75

